ARM GAS  C:\Users\Srujith\AppData\Local\Temp\ccChdl8d.s 			page 1


   1              		.syntax unified
   2              		.cpu cortex-m3
   3              		.fpu softvfp
   4              		.eabi_attribute 20, 1
   5              		.eabi_attribute 21, 1
   6              		.eabi_attribute 23, 3
   7              		.eabi_attribute 24, 1
   8              		.eabi_attribute 25, 1
   9              		.eabi_attribute 26, 1
  10              		.eabi_attribute 30, 6
  11              		.eabi_attribute 34, 1
  12              		.eabi_attribute 18, 4
  13              		.thumb
  14              		.file	"ADC_DelSig_1_AMux.c"
  15              		.text
  16              	.Ltext0:
  17              		.cfi_sections	.debug_frame
  18              		.data
  19              		.type	ADC_DelSig_1_AMux_lastChannel, %object
  20              		.size	ADC_DelSig_1_AMux_lastChannel, 1
  21              	ADC_DelSig_1_AMux_lastChannel:
  22 0000 FF       		.byte	-1
  23              		.section	.text.ADC_DelSig_1_AMux_Start,"ax",%progbits
  24              		.align	2
  25              		.global	ADC_DelSig_1_AMux_Start
  26              		.thumb
  27              		.thumb_func
  28              		.type	ADC_DelSig_1_AMux_Start, %function
  29              	ADC_DelSig_1_AMux_Start:
  30              	.LFB0:
  31              		.file 1 "Generated_Source\\PSoC5\\ADC_DelSig_1_AMux.c"
   1:Generated_Source\PSoC5/ADC_DelSig_1_AMux.c **** /*******************************************************************************
   2:Generated_Source\PSoC5/ADC_DelSig_1_AMux.c **** * File Name: ADC_DelSig_1_AMux.c
   3:Generated_Source\PSoC5/ADC_DelSig_1_AMux.c **** * Version 1.80
   4:Generated_Source\PSoC5/ADC_DelSig_1_AMux.c **** *
   5:Generated_Source\PSoC5/ADC_DelSig_1_AMux.c **** *  Description:
   6:Generated_Source\PSoC5/ADC_DelSig_1_AMux.c **** *    This file contains all functions required for the analog multiplexer
   7:Generated_Source\PSoC5/ADC_DelSig_1_AMux.c **** *    AMux User Module.
   8:Generated_Source\PSoC5/ADC_DelSig_1_AMux.c **** *
   9:Generated_Source\PSoC5/ADC_DelSig_1_AMux.c **** *   Note:
  10:Generated_Source\PSoC5/ADC_DelSig_1_AMux.c **** *
  11:Generated_Source\PSoC5/ADC_DelSig_1_AMux.c **** *******************************************************************************
  12:Generated_Source\PSoC5/ADC_DelSig_1_AMux.c **** * Copyright 2008-2010, Cypress Semiconductor Corporation.  All rights reserved.
  13:Generated_Source\PSoC5/ADC_DelSig_1_AMux.c **** * You may use this file only in accordance with the license, terms, conditions, 
  14:Generated_Source\PSoC5/ADC_DelSig_1_AMux.c **** * disclaimers, and limitations in the end user license agreement accompanying 
  15:Generated_Source\PSoC5/ADC_DelSig_1_AMux.c **** * the software package with which this file was provided.
  16:Generated_Source\PSoC5/ADC_DelSig_1_AMux.c **** ********************************************************************************/
  17:Generated_Source\PSoC5/ADC_DelSig_1_AMux.c **** 
  18:Generated_Source\PSoC5/ADC_DelSig_1_AMux.c **** #include "ADC_DelSig_1_AMux.h"
  19:Generated_Source\PSoC5/ADC_DelSig_1_AMux.c **** 
  20:Generated_Source\PSoC5/ADC_DelSig_1_AMux.c **** static uint8 ADC_DelSig_1_AMux_lastChannel = ADC_DelSig_1_AMux_NULL_CHANNEL;
  21:Generated_Source\PSoC5/ADC_DelSig_1_AMux.c **** 
  22:Generated_Source\PSoC5/ADC_DelSig_1_AMux.c **** 
  23:Generated_Source\PSoC5/ADC_DelSig_1_AMux.c **** /*******************************************************************************
  24:Generated_Source\PSoC5/ADC_DelSig_1_AMux.c **** * Function Name: ADC_DelSig_1_AMux_Start
  25:Generated_Source\PSoC5/ADC_DelSig_1_AMux.c **** ********************************************************************************
  26:Generated_Source\PSoC5/ADC_DelSig_1_AMux.c **** * Summary:
ARM GAS  C:\Users\Srujith\AppData\Local\Temp\ccChdl8d.s 			page 2


  27:Generated_Source\PSoC5/ADC_DelSig_1_AMux.c **** *  Disconnect all channels.
  28:Generated_Source\PSoC5/ADC_DelSig_1_AMux.c **** *
  29:Generated_Source\PSoC5/ADC_DelSig_1_AMux.c **** * Parameters:
  30:Generated_Source\PSoC5/ADC_DelSig_1_AMux.c **** *  void
  31:Generated_Source\PSoC5/ADC_DelSig_1_AMux.c **** *
  32:Generated_Source\PSoC5/ADC_DelSig_1_AMux.c **** * Return:
  33:Generated_Source\PSoC5/ADC_DelSig_1_AMux.c **** *  void
  34:Generated_Source\PSoC5/ADC_DelSig_1_AMux.c **** *
  35:Generated_Source\PSoC5/ADC_DelSig_1_AMux.c **** *******************************************************************************/
  36:Generated_Source\PSoC5/ADC_DelSig_1_AMux.c **** void ADC_DelSig_1_AMux_Start(void) 
  37:Generated_Source\PSoC5/ADC_DelSig_1_AMux.c **** {
  32              		.loc 1 37 0
  33              		.cfi_startproc
  34              		@ args = 0, pretend = 0, frame = 8
  35              		@ frame_needed = 1, uses_anonymous_args = 0
  36 0000 80B5     		push	{r7, lr}
  37              		.cfi_def_cfa_offset 8
  38              		.cfi_offset 7, -8
  39              		.cfi_offset 14, -4
  40 0002 82B0     		sub	sp, sp, #8
  41              		.cfi_def_cfa_offset 16
  42 0004 00AF     		add	r7, sp, #0
  43              		.cfi_def_cfa_register 7
  38:Generated_Source\PSoC5/ADC_DelSig_1_AMux.c ****     uint8 chan;
  39:Generated_Source\PSoC5/ADC_DelSig_1_AMux.c **** 
  40:Generated_Source\PSoC5/ADC_DelSig_1_AMux.c ****     for(chan = 0u; chan < ADC_DelSig_1_AMux_CHANNELS ; chan++)
  44              		.loc 1 40 0
  45 0006 0023     		movs	r3, #0
  46 0008 FB71     		strb	r3, [r7, #7]
  47 000a 06E0     		b	.L2
  48              	.L3:
  41:Generated_Source\PSoC5/ADC_DelSig_1_AMux.c ****     {
  42:Generated_Source\PSoC5/ADC_DelSig_1_AMux.c **** #if (ADC_DelSig_1_AMux_MUXTYPE == ADC_DelSig_1_AMux_MUX_SINGLE)
  43:Generated_Source\PSoC5/ADC_DelSig_1_AMux.c ****         ADC_DelSig_1_AMux_Unset(chan);
  49              		.loc 1 43 0 discriminator 3
  50 000c FB79     		ldrb	r3, [r7, #7]	@ zero_extendqisi2
  51 000e 1846     		mov	r0, r3
  52 0010 FFF7FEFF 		bl	ADC_DelSig_1_AMux_Unset
  40:Generated_Source\PSoC5/ADC_DelSig_1_AMux.c ****     {
  53              		.loc 1 40 0 discriminator 3
  54 0014 FB79     		ldrb	r3, [r7, #7]	@ zero_extendqisi2
  55 0016 0133     		adds	r3, r3, #1
  56 0018 FB71     		strb	r3, [r7, #7]
  57              	.L2:
  40:Generated_Source\PSoC5/ADC_DelSig_1_AMux.c ****     {
  58              		.loc 1 40 0 is_stmt 0 discriminator 1
  59 001a FB79     		ldrb	r3, [r7, #7]	@ zero_extendqisi2
  60 001c 012B     		cmp	r3, #1
  61 001e F5D9     		bls	.L3
  44:Generated_Source\PSoC5/ADC_DelSig_1_AMux.c **** #else
  45:Generated_Source\PSoC5/ADC_DelSig_1_AMux.c ****         ADC_DelSig_1_AMux_CYAMUXSIDE_A_Unset(chan);
  46:Generated_Source\PSoC5/ADC_DelSig_1_AMux.c ****         ADC_DelSig_1_AMux_CYAMUXSIDE_B_Unset(chan);
  47:Generated_Source\PSoC5/ADC_DelSig_1_AMux.c **** #endif
  48:Generated_Source\PSoC5/ADC_DelSig_1_AMux.c ****     }
  49:Generated_Source\PSoC5/ADC_DelSig_1_AMux.c **** 
  50:Generated_Source\PSoC5/ADC_DelSig_1_AMux.c ****     ADC_DelSig_1_AMux_lastChannel = ADC_DelSig_1_AMux_NULL_CHANNEL;
  62              		.loc 1 50 0 is_stmt 1
ARM GAS  C:\Users\Srujith\AppData\Local\Temp\ccChdl8d.s 			page 3


  63 0020 024B     		ldr	r3, .L4
  64 0022 FF22     		movs	r2, #255
  65 0024 1A70     		strb	r2, [r3]
  51:Generated_Source\PSoC5/ADC_DelSig_1_AMux.c **** }
  66              		.loc 1 51 0
  67 0026 0837     		adds	r7, r7, #8
  68              		.cfi_def_cfa_offset 8
  69 0028 BD46     		mov	sp, r7
  70              		.cfi_def_cfa_register 13
  71              		@ sp needed
  72 002a 80BD     		pop	{r7, pc}
  73              	.L5:
  74              		.align	2
  75              	.L4:
  76 002c 00000000 		.word	ADC_DelSig_1_AMux_lastChannel
  77              		.cfi_endproc
  78              	.LFE0:
  79              		.size	ADC_DelSig_1_AMux_Start, .-ADC_DelSig_1_AMux_Start
  80              		.section	.text.ADC_DelSig_1_AMux_Select,"ax",%progbits
  81              		.align	2
  82              		.global	ADC_DelSig_1_AMux_Select
  83              		.thumb
  84              		.thumb_func
  85              		.type	ADC_DelSig_1_AMux_Select, %function
  86              	ADC_DelSig_1_AMux_Select:
  87              	.LFB1:
  52:Generated_Source\PSoC5/ADC_DelSig_1_AMux.c **** 
  53:Generated_Source\PSoC5/ADC_DelSig_1_AMux.c **** 
  54:Generated_Source\PSoC5/ADC_DelSig_1_AMux.c **** #if (!ADC_DelSig_1_AMux_ATMOSTONE)
  55:Generated_Source\PSoC5/ADC_DelSig_1_AMux.c **** /*******************************************************************************
  56:Generated_Source\PSoC5/ADC_DelSig_1_AMux.c **** * Function Name: ADC_DelSig_1_AMux_Select
  57:Generated_Source\PSoC5/ADC_DelSig_1_AMux.c **** ********************************************************************************
  58:Generated_Source\PSoC5/ADC_DelSig_1_AMux.c **** * Summary:
  59:Generated_Source\PSoC5/ADC_DelSig_1_AMux.c **** *  This functions first disconnects all channels then connects the given
  60:Generated_Source\PSoC5/ADC_DelSig_1_AMux.c **** *  channel.
  61:Generated_Source\PSoC5/ADC_DelSig_1_AMux.c **** *
  62:Generated_Source\PSoC5/ADC_DelSig_1_AMux.c **** * Parameters:
  63:Generated_Source\PSoC5/ADC_DelSig_1_AMux.c **** *  channel:  The channel to connect to the common terminal.
  64:Generated_Source\PSoC5/ADC_DelSig_1_AMux.c **** *
  65:Generated_Source\PSoC5/ADC_DelSig_1_AMux.c **** * Return:
  66:Generated_Source\PSoC5/ADC_DelSig_1_AMux.c **** *  void
  67:Generated_Source\PSoC5/ADC_DelSig_1_AMux.c **** *
  68:Generated_Source\PSoC5/ADC_DelSig_1_AMux.c **** *******************************************************************************/
  69:Generated_Source\PSoC5/ADC_DelSig_1_AMux.c **** void ADC_DelSig_1_AMux_Select(uint8 channel) 
  70:Generated_Source\PSoC5/ADC_DelSig_1_AMux.c **** {
  88              		.loc 1 70 0
  89              		.cfi_startproc
  90              		@ args = 0, pretend = 0, frame = 8
  91              		@ frame_needed = 1, uses_anonymous_args = 0
  92 0000 80B5     		push	{r7, lr}
  93              		.cfi_def_cfa_offset 8
  94              		.cfi_offset 7, -8
  95              		.cfi_offset 14, -4
  96 0002 82B0     		sub	sp, sp, #8
  97              		.cfi_def_cfa_offset 16
  98 0004 00AF     		add	r7, sp, #0
  99              		.cfi_def_cfa_register 7
ARM GAS  C:\Users\Srujith\AppData\Local\Temp\ccChdl8d.s 			page 4


 100 0006 0346     		mov	r3, r0
 101 0008 FB71     		strb	r3, [r7, #7]
  71:Generated_Source\PSoC5/ADC_DelSig_1_AMux.c ****     ADC_DelSig_1_AMux_DisconnectAll();        /* Disconnect all previous connections */
 102              		.loc 1 71 0
 103 000a FFF7FEFF 		bl	ADC_DelSig_1_AMux_Start
  72:Generated_Source\PSoC5/ADC_DelSig_1_AMux.c ****     ADC_DelSig_1_AMux_Connect(channel);       /* Make the given selection */
 104              		.loc 1 72 0
 105 000e FB79     		ldrb	r3, [r7, #7]	@ zero_extendqisi2
 106 0010 1846     		mov	r0, r3
 107 0012 FFF7FEFF 		bl	ADC_DelSig_1_AMux_Set
  73:Generated_Source\PSoC5/ADC_DelSig_1_AMux.c ****     ADC_DelSig_1_AMux_lastChannel = channel;  /* Update last channel */
 108              		.loc 1 73 0
 109 0016 034A     		ldr	r2, .L7
 110 0018 FB79     		ldrb	r3, [r7, #7]
 111 001a 1370     		strb	r3, [r2]
  74:Generated_Source\PSoC5/ADC_DelSig_1_AMux.c **** }
 112              		.loc 1 74 0
 113 001c 0837     		adds	r7, r7, #8
 114              		.cfi_def_cfa_offset 8
 115 001e BD46     		mov	sp, r7
 116              		.cfi_def_cfa_register 13
 117              		@ sp needed
 118 0020 80BD     		pop	{r7, pc}
 119              	.L8:
 120 0022 00BF     		.align	2
 121              	.L7:
 122 0024 00000000 		.word	ADC_DelSig_1_AMux_lastChannel
 123              		.cfi_endproc
 124              	.LFE1:
 125              		.size	ADC_DelSig_1_AMux_Select, .-ADC_DelSig_1_AMux_Select
 126              		.section	.text.ADC_DelSig_1_AMux_FastSelect,"ax",%progbits
 127              		.align	2
 128              		.global	ADC_DelSig_1_AMux_FastSelect
 129              		.thumb
 130              		.thumb_func
 131              		.type	ADC_DelSig_1_AMux_FastSelect, %function
 132              	ADC_DelSig_1_AMux_FastSelect:
 133              	.LFB2:
  75:Generated_Source\PSoC5/ADC_DelSig_1_AMux.c **** #endif
  76:Generated_Source\PSoC5/ADC_DelSig_1_AMux.c **** 
  77:Generated_Source\PSoC5/ADC_DelSig_1_AMux.c **** 
  78:Generated_Source\PSoC5/ADC_DelSig_1_AMux.c **** /*******************************************************************************
  79:Generated_Source\PSoC5/ADC_DelSig_1_AMux.c **** * Function Name: ADC_DelSig_1_AMux_FastSelect
  80:Generated_Source\PSoC5/ADC_DelSig_1_AMux.c **** ********************************************************************************
  81:Generated_Source\PSoC5/ADC_DelSig_1_AMux.c **** * Summary:
  82:Generated_Source\PSoC5/ADC_DelSig_1_AMux.c **** *  This function first disconnects the last connection made with FastSelect or
  83:Generated_Source\PSoC5/ADC_DelSig_1_AMux.c **** *  Select, then connects the given channel. The FastSelect function is similar
  84:Generated_Source\PSoC5/ADC_DelSig_1_AMux.c **** *  to the Select function, except it is faster since it only disconnects the
  85:Generated_Source\PSoC5/ADC_DelSig_1_AMux.c **** *  last channel selected rather than all channels.
  86:Generated_Source\PSoC5/ADC_DelSig_1_AMux.c **** *
  87:Generated_Source\PSoC5/ADC_DelSig_1_AMux.c **** * Parameters:
  88:Generated_Source\PSoC5/ADC_DelSig_1_AMux.c **** *  channel:  The channel to connect to the common terminal.
  89:Generated_Source\PSoC5/ADC_DelSig_1_AMux.c **** *
  90:Generated_Source\PSoC5/ADC_DelSig_1_AMux.c **** * Return:
  91:Generated_Source\PSoC5/ADC_DelSig_1_AMux.c **** *  void
  92:Generated_Source\PSoC5/ADC_DelSig_1_AMux.c **** *
  93:Generated_Source\PSoC5/ADC_DelSig_1_AMux.c **** *******************************************************************************/
ARM GAS  C:\Users\Srujith\AppData\Local\Temp\ccChdl8d.s 			page 5


  94:Generated_Source\PSoC5/ADC_DelSig_1_AMux.c **** void ADC_DelSig_1_AMux_FastSelect(uint8 channel) 
  95:Generated_Source\PSoC5/ADC_DelSig_1_AMux.c **** {
 134              		.loc 1 95 0
 135              		.cfi_startproc
 136              		@ args = 0, pretend = 0, frame = 8
 137              		@ frame_needed = 1, uses_anonymous_args = 0
 138 0000 80B5     		push	{r7, lr}
 139              		.cfi_def_cfa_offset 8
 140              		.cfi_offset 7, -8
 141              		.cfi_offset 14, -4
 142 0002 82B0     		sub	sp, sp, #8
 143              		.cfi_def_cfa_offset 16
 144 0004 00AF     		add	r7, sp, #0
 145              		.cfi_def_cfa_register 7
 146 0006 0346     		mov	r3, r0
 147 0008 FB71     		strb	r3, [r7, #7]
  96:Generated_Source\PSoC5/ADC_DelSig_1_AMux.c ****     /* Disconnect the last valid channel */
  97:Generated_Source\PSoC5/ADC_DelSig_1_AMux.c ****     if( ADC_DelSig_1_AMux_lastChannel != ADC_DelSig_1_AMux_NULL_CHANNEL)
 148              		.loc 1 97 0
 149 000a 094B     		ldr	r3, .L11
 150 000c 1B78     		ldrb	r3, [r3]	@ zero_extendqisi2
 151 000e FF2B     		cmp	r3, #255
 152 0010 04D0     		beq	.L10
  98:Generated_Source\PSoC5/ADC_DelSig_1_AMux.c ****     {
  99:Generated_Source\PSoC5/ADC_DelSig_1_AMux.c ****         ADC_DelSig_1_AMux_Disconnect(ADC_DelSig_1_AMux_lastChannel);
 153              		.loc 1 99 0
 154 0012 074B     		ldr	r3, .L11
 155 0014 1B78     		ldrb	r3, [r3]	@ zero_extendqisi2
 156 0016 1846     		mov	r0, r3
 157 0018 FFF7FEFF 		bl	ADC_DelSig_1_AMux_Unset
 158              	.L10:
 100:Generated_Source\PSoC5/ADC_DelSig_1_AMux.c ****     }
 101:Generated_Source\PSoC5/ADC_DelSig_1_AMux.c **** 
 102:Generated_Source\PSoC5/ADC_DelSig_1_AMux.c ****     /* Make the new channel connection */
 103:Generated_Source\PSoC5/ADC_DelSig_1_AMux.c **** #if (ADC_DelSig_1_AMux_MUXTYPE == ADC_DelSig_1_AMux_MUX_SINGLE)
 104:Generated_Source\PSoC5/ADC_DelSig_1_AMux.c ****     ADC_DelSig_1_AMux_Set(channel);
 159              		.loc 1 104 0
 160 001c FB79     		ldrb	r3, [r7, #7]	@ zero_extendqisi2
 161 001e 1846     		mov	r0, r3
 162 0020 FFF7FEFF 		bl	ADC_DelSig_1_AMux_Set
 105:Generated_Source\PSoC5/ADC_DelSig_1_AMux.c **** #else
 106:Generated_Source\PSoC5/ADC_DelSig_1_AMux.c ****     ADC_DelSig_1_AMux_CYAMUXSIDE_A_Set(channel);
 107:Generated_Source\PSoC5/ADC_DelSig_1_AMux.c ****     ADC_DelSig_1_AMux_CYAMUXSIDE_B_Set(channel);
 108:Generated_Source\PSoC5/ADC_DelSig_1_AMux.c **** #endif
 109:Generated_Source\PSoC5/ADC_DelSig_1_AMux.c **** 
 110:Generated_Source\PSoC5/ADC_DelSig_1_AMux.c **** 
 111:Generated_Source\PSoC5/ADC_DelSig_1_AMux.c ****     ADC_DelSig_1_AMux_lastChannel = channel;   /* Update last channel */
 163              		.loc 1 111 0
 164 0024 024A     		ldr	r2, .L11
 165 0026 FB79     		ldrb	r3, [r7, #7]
 166 0028 1370     		strb	r3, [r2]
 112:Generated_Source\PSoC5/ADC_DelSig_1_AMux.c **** }
 167              		.loc 1 112 0
 168 002a 0837     		adds	r7, r7, #8
 169              		.cfi_def_cfa_offset 8
 170 002c BD46     		mov	sp, r7
 171              		.cfi_def_cfa_register 13
ARM GAS  C:\Users\Srujith\AppData\Local\Temp\ccChdl8d.s 			page 6


 172              		@ sp needed
 173 002e 80BD     		pop	{r7, pc}
 174              	.L12:
 175              		.align	2
 176              	.L11:
 177 0030 00000000 		.word	ADC_DelSig_1_AMux_lastChannel
 178              		.cfi_endproc
 179              	.LFE2:
 180              		.size	ADC_DelSig_1_AMux_FastSelect, .-ADC_DelSig_1_AMux_FastSelect
 181              		.text
 182              	.Letext0:
 183              		.file 2 "Generated_Source\\PSoC5\\cytypes.h"