ARM GAS  C:\Users\Srujith\AppData\Local\Temp\ccPibnwj.s 			page 1


   1              		.syntax unified
   2              		.cpu cortex-m3
   3              		.fpu softvfp
   4              		.eabi_attribute 20, 1
   5              		.eabi_attribute 21, 1
   6              		.eabi_attribute 23, 3
   7              		.eabi_attribute 24, 1
   8              		.eabi_attribute 25, 1
   9              		.eabi_attribute 26, 1
  10              		.eabi_attribute 30, 6
  11              		.eabi_attribute 34, 1
  12              		.eabi_attribute 18, 4
  13              		.thumb
  14              		.file	"main.c"
  15              		.text
  16              	.Ltext0:
  17              		.cfi_sections	.debug_frame
  18              		.global	__aeabi_i2f
  19              		.global	__aeabi_fcmplt
  20              		.global	__aeabi_f2d
  21              		.section	.rodata
  22              		.align	2
  23              	.LC0:
  24 0000 25392E36 		.ascii	"%9.6f\000"
  24      6600
  25 0006 0000     		.align	2
  26              	.LC1:
  27 0008 0D0A00   		.ascii	"\015\012\000"
  28 000b 00       		.section	.text.main,"ax",%progbits
  29              		.align	2
  30              		.global	main
  31              		.thumb
  32              		.thumb_func
  33              		.type	main, %function
  34              	main:
  35              	.LFB63:
  36              		.file 1 "main.c"
   1:main.c        **** /*******************************************************************************
   2:main.c        **** * File Name: main.c
   3:main.c        **** *
   4:main.c        **** * Version: 2.20
   5:main.c        **** *
   6:main.c        **** * Description:
   7:main.c        **** *   This is a source code for example project of ADC single ended mode.
   8:main.c        **** *
   9:main.c        **** *   Variable resistor(pot) is connected to +ve input of ADC using the I/O pin.
  10:main.c        **** *   P0.0. When voltage to positive terminal of ADC is 0, the output displayed
  11:main.c        **** *   on the LCD pannel is 0x0000. As voltage on positive terminal goes on
  12:main.c        **** *   increasing, the  converted value goes on increasing from 0x0000 and reaches
  13:main.c        **** *   0xFFFF when voltage becomes 1.024V. Futher increase in voltage value,
  14:main.c        **** *   doesn't cause any changes to values displayed in the LCD.
  15:main.c        **** *
  16:main.c        **** * Hardware Connections:
  17:main.c        **** *  Connect analog input from Variable resistor to port P0[0] of DVK1 board.
  18:main.c        **** *
  19:main.c        **** ********************************************************************************
  20:main.c        **** * Copyright 2012-2015, Cypress Semiconductor Corporation. All rights reserved.
ARM GAS  C:\Users\Srujith\AppData\Local\Temp\ccPibnwj.s 			page 2


  21:main.c        **** * This software is owned by Cypress Semiconductor Corporation and is protected
  22:main.c        **** * by and subject to worldwide patent and copyright laws and treaties.
  23:main.c        **** * Therefore, you may use this software only as provided in the license agreement
  24:main.c        **** * accompanying the software package from which you obtained this software.
  25:main.c        **** * CYPRESS AND ITS SUPPLIERS MAKE NO WARRANTY OF ANY KIND, EXPRESS OR IMPLIED,
  26:main.c        **** * WITH REGARD TO THIS SOFTWARE, INCLUDING, BUT NOT LIMITED TO, NONINFRINGEMENT,
  27:main.c        **** * IMPLIED WARRANTIES OF MERCHANTABILITY AND FITNESS FOR A PARTICULAR PURPOSE.
  28:main.c        **** *******************************************************************************/
  29:main.c        **** 
  30:main.c        **** #include <project.h>
  31:main.c        **** #include <stdio.h>
  32:main.c        **** #include <math.h> 
  33:main.c        **** 
  34:main.c        **** /*******************************************************************************
  35:main.c        **** * Function Name: main
  36:main.c        **** ********************************************************************************
  37:main.c        **** *
  38:main.c        **** * Summary:
  39:main.c        **** *  main() performs following functions:
  40:main.c        **** *  1: Initializes the LCD
  41:main.c        **** *  2: Starts ADC
  42:main.c        **** *  3: Starts ADC converstion.
  43:main.c        **** *  4: Gets the converted result and displays it in LCD.
  44:main.c        **** *
  45:main.c        **** * Parameters:
  46:main.c        **** *  None.
  47:main.c        **** *
  48:main.c        **** * Return:
  49:main.c        **** *  None.
  50:main.c        **** *
  51:main.c        **** *******************************************************************************/
  52:main.c        **** int main()
  53:main.c        **** {
  37              		.loc 1 53 0
  38              		.cfi_startproc
  39              		@ args = 0, pretend = 0, frame = 64
  40              		@ frame_needed = 1, uses_anonymous_args = 0
  41 0000 B0B5     		push	{r4, r5, r7, lr}
  42              		.cfi_def_cfa_offset 16
  43              		.cfi_offset 4, -16
  44              		.cfi_offset 5, -12
  45              		.cfi_offset 7, -8
  46              		.cfi_offset 14, -4
  47 0002 90B0     		sub	sp, sp, #64
  48              		.cfi_def_cfa_offset 80
  49 0004 00AF     		add	r7, sp, #0
  50              		.cfi_def_cfa_register 7
  54:main.c        ****     float output;
  55:main.c        **** 
  56:main.c        ****     /* Start the components */
  57:main.c        **** 
  58:main.c        ****     UART_1_Start();
  51              		.loc 1 58 0
  52 0006 FFF7FEFF 		bl	UART_1_Start
  59:main.c        ****     ADC_DelSig_1_Start();
  53              		.loc 1 59 0
  54 000a FFF7FEFF 		bl	ADC_DelSig_1_Start
ARM GAS  C:\Users\Srujith\AppData\Local\Temp\ccPibnwj.s 			page 3


  60:main.c        **** 
  61:main.c        ****     /* Start the ADC conversion */
  62:main.c        ****     ADC_DelSig_1_StartConvert();
  55              		.loc 1 62 0
  56 000e FFF7FEFF 		bl	ADC_DelSig_1_StartConvert
  63:main.c        ****     
  64:main.c        ****     float voltage = 0;
  57              		.loc 1 64 0
  58 0012 4FF00003 		mov	r3, #0
  59 0016 BB63     		str	r3, [r7, #56]	@ float
  60              	.L5:
  65:main.c        ****     char outputstring[50];
  66:main.c        ****     
  67:main.c        **** 
  68:main.c        ****     for(;;)
  69:main.c        ****     {
  70:main.c        ****         if(ADC_DelSig_1_IsEndConversion(ADC_DelSig_1_RETURN_STATUS))
  61              		.loc 1 70 0
  62 0018 0120     		movs	r0, #1
  63 001a FFF7FEFF 		bl	ADC_DelSig_1_IsEndConversion
  64 001e 0346     		mov	r3, r0
  65 0020 002B     		cmp	r3, #0
  66 0022 29D0     		beq	.L2
  71:main.c        ****         {
  72:main.c        ****             output = ADC_DelSig_1_GetResult32();
  67              		.loc 1 72 0
  68 0024 FFF7FEFF 		bl	ADC_DelSig_1_GetResult32
  69 0028 0346     		mov	r3, r0
  70 002a 1846     		mov	r0, r3
  71 002c FFF7FEFF 		bl	__aeabi_i2f
  72 0030 0346     		mov	r3, r0
  73 0032 FB63     		str	r3, [r7, #60]	@ float
  73:main.c        ****             
  74:main.c        ****             /* Saturate ADC result to positive numbers. */
  75:main.c        ****             if(output < 0)
  74              		.loc 1 75 0
  75 0034 F86B     		ldr	r0, [r7, #60]	@ float
  76 0036 4FF00001 		mov	r1, #0
  77 003a FFF7FEFF 		bl	__aeabi_fcmplt
  78 003e 0346     		mov	r3, r0
  79 0040 002B     		cmp	r3, #0
  80 0042 02D0     		beq	.L3
  76:main.c        ****             {
  77:main.c        ****                 output = 0;
  81              		.loc 1 77 0
  82 0044 4FF00003 		mov	r3, #0
  83 0048 FB63     		str	r3, [r7, #60]	@ float
  84              	.L3:
  78:main.c        ****             }
  79:main.c        ****              sprintf(outputstring, "%9.6f", output);  // convert voltage to string 
  85              		.loc 1 79 0
  86 004a F86B     		ldr	r0, [r7, #60]	@ float
  87 004c FFF7FEFF 		bl	__aeabi_f2d
  88 0050 0446     		mov	r4, r0
  89 0052 0D46     		mov	r5, r1
  90 0054 3B1D     		adds	r3, r7, #4
  91 0056 1846     		mov	r0, r3
ARM GAS  C:\Users\Srujith\AppData\Local\Temp\ccPibnwj.s 			page 4


  92 0058 0849     		ldr	r1, .L7
  93 005a 2246     		mov	r2, r4
  94 005c 2B46     		mov	r3, r5
  95 005e FFF7FEFF 		bl	sprintf
  80:main.c        ****         
  81:main.c        ****             UART_1_PutString(outputstring);  // print value to UART 
  96              		.loc 1 81 0
  97 0062 3B1D     		adds	r3, r7, #4
  98 0064 1846     		mov	r0, r3
  99 0066 FFF7FEFF 		bl	UART_1_PutString
  82:main.c        ****             UART_1_PutString("\r\n"); 
 100              		.loc 1 82 0
 101 006a 0548     		ldr	r0, .L7+4
 102 006c FFF7FEFF 		bl	UART_1_PutString
  83:main.c        ****             CyDelay(300);        
 103              		.loc 1 83 0
 104 0070 4FF49670 		mov	r0, #300
 105 0074 FFF7FEFF 		bl	CyDelay
 106              	.L2:
  84:main.c        ****         }
  85:main.c        ****     }
 107              		.loc 1 85 0
 108 0078 CEE7     		b	.L5
 109              	.L8:
 110 007a 00BF     		.align	2
 111              	.L7:
 112 007c 00000000 		.word	.LC0
 113 0080 08000000 		.word	.LC1
 114              		.cfi_endproc
 115              	.LFE63:
 116              		.size	main, .-main
 117              		.text
 118              	.Letext0:
 119              		.file 2 "c:\\program files\\cypress\\psoc creator\\4.0\\psoc creator\\import\\gnu\\arm\\4.9.3\\arm
 120              		.file 3 "c:\\program files\\cypress\\psoc creator\\4.0\\psoc creator\\import\\gnu\\arm\\4.9.3\\arm
 121              		.file 4 "Generated_Source\\PSoC5/core_cm3.h"