ARM GAS  C:\Users\Digi-Key\AppData\Local\Temp\ccWaxdFd.s 			page 1


   1              		.syntax unified
   2              		.cpu cortex-m3
   3              		.fpu softvfp
   4              		.eabi_attribute 20, 1
   5              		.eabi_attribute 21, 1
   6              		.eabi_attribute 23, 3
   7              		.eabi_attribute 24, 1
   8              		.eabi_attribute 25, 1
   9              		.eabi_attribute 26, 1
  10              		.eabi_attribute 30, 1
  11              		.eabi_attribute 34, 1
  12              		.eabi_attribute 18, 4
  13              		.thumb
  14              		.file	"ADC.c"
  15              		.text
  16              	.Ltext0:
  17              		.cfi_sections	.debug_frame
  18              		.section	.text.ADC_CalcGain,"ax",%progbits
  19              		.align	2
  20              		.thumb
  21              		.thumb_func
  22              		.type	ADC_CalcGain, %function
  23              	ADC_CalcGain:
  24              	.LFB12:
  25              		.file 1 ".\\Generated_Source\\PSoC5\\ADC.c"
   1:.\Generated_Source\PSoC5/ADC.c **** /*******************************************************************************
   2:.\Generated_Source\PSoC5/ADC.c **** * File Name: ADC.c
   3:.\Generated_Source\PSoC5/ADC.c **** * Version 3.0
   4:.\Generated_Source\PSoC5/ADC.c **** *
   5:.\Generated_Source\PSoC5/ADC.c **** * Description:
   6:.\Generated_Source\PSoC5/ADC.c **** *  This file provides the source code to the API for the Successive
   7:.\Generated_Source\PSoC5/ADC.c **** *  approximation ADC Component.
   8:.\Generated_Source\PSoC5/ADC.c **** *
   9:.\Generated_Source\PSoC5/ADC.c **** * Note:
  10:.\Generated_Source\PSoC5/ADC.c **** *
  11:.\Generated_Source\PSoC5/ADC.c **** ********************************************************************************
  12:.\Generated_Source\PSoC5/ADC.c **** * Copyright 2008-2015, Cypress Semiconductor Corporation.  All rights reserved.
  13:.\Generated_Source\PSoC5/ADC.c **** * You may use this file only in accordance with the license, terms, conditions,
  14:.\Generated_Source\PSoC5/ADC.c **** * disclaimers, and limitations in the end user license agreement accompanying
  15:.\Generated_Source\PSoC5/ADC.c **** * the software package with which this file was provided.
  16:.\Generated_Source\PSoC5/ADC.c **** *******************************************************************************/
  17:.\Generated_Source\PSoC5/ADC.c **** 
  18:.\Generated_Source\PSoC5/ADC.c **** #include "CyLib.h"
  19:.\Generated_Source\PSoC5/ADC.c **** #include "ADC.h"
  20:.\Generated_Source\PSoC5/ADC.c **** 
  21:.\Generated_Source\PSoC5/ADC.c **** #if(ADC_DEFAULT_INTERNAL_CLK)
  22:.\Generated_Source\PSoC5/ADC.c ****     #include "ADC_theACLK.h"
  23:.\Generated_Source\PSoC5/ADC.c **** #endif /* End ADC_DEFAULT_INTERNAL_CLK */
  24:.\Generated_Source\PSoC5/ADC.c **** 
  25:.\Generated_Source\PSoC5/ADC.c **** 
  26:.\Generated_Source\PSoC5/ADC.c **** /***************************************
  27:.\Generated_Source\PSoC5/ADC.c **** * Forward function references
  28:.\Generated_Source\PSoC5/ADC.c **** ***************************************/
  29:.\Generated_Source\PSoC5/ADC.c **** static void ADC_CalcGain(uint8 resolution);
  30:.\Generated_Source\PSoC5/ADC.c **** 
  31:.\Generated_Source\PSoC5/ADC.c **** 
  32:.\Generated_Source\PSoC5/ADC.c **** /***************************************
ARM GAS  C:\Users\Digi-Key\AppData\Local\Temp\ccWaxdFd.s 			page 2


  33:.\Generated_Source\PSoC5/ADC.c **** * Global data allocation
  34:.\Generated_Source\PSoC5/ADC.c **** ***************************************/
  35:.\Generated_Source\PSoC5/ADC.c **** uint8 ADC_initVar = 0u;
  36:.\Generated_Source\PSoC5/ADC.c **** volatile int16 ADC_offset;
  37:.\Generated_Source\PSoC5/ADC.c **** volatile int16 ADC_countsPerVolt;     /* Obsolete Gain compensation */
  38:.\Generated_Source\PSoC5/ADC.c **** volatile int32 ADC_countsPer10Volt;   /* Gain compensation */
  39:.\Generated_Source\PSoC5/ADC.c **** volatile int16 ADC_shift;
  40:.\Generated_Source\PSoC5/ADC.c **** 
  41:.\Generated_Source\PSoC5/ADC.c **** 
  42:.\Generated_Source\PSoC5/ADC.c **** /*******************************************************************************
  43:.\Generated_Source\PSoC5/ADC.c **** * Function Name: ADC_Start
  44:.\Generated_Source\PSoC5/ADC.c **** ********************************************************************************
  45:.\Generated_Source\PSoC5/ADC.c **** *
  46:.\Generated_Source\PSoC5/ADC.c **** * Summary:
  47:.\Generated_Source\PSoC5/ADC.c **** *  This is the preferred method to begin component operation.
  48:.\Generated_Source\PSoC5/ADC.c **** *  ADC_Start() sets the initVar variable, calls the
  49:.\Generated_Source\PSoC5/ADC.c **** *  ADC_Init() function, and then calls the
  50:.\Generated_Source\PSoC5/ADC.c **** *  ADC_Enable() function.
  51:.\Generated_Source\PSoC5/ADC.c **** *
  52:.\Generated_Source\PSoC5/ADC.c **** * Parameters:
  53:.\Generated_Source\PSoC5/ADC.c **** *  None.
  54:.\Generated_Source\PSoC5/ADC.c **** *
  55:.\Generated_Source\PSoC5/ADC.c **** * Return:
  56:.\Generated_Source\PSoC5/ADC.c **** *  None.
  57:.\Generated_Source\PSoC5/ADC.c **** *
  58:.\Generated_Source\PSoC5/ADC.c **** * Global variables:
  59:.\Generated_Source\PSoC5/ADC.c **** *  The ADC_initVar variable is used to indicate when/if initial
  60:.\Generated_Source\PSoC5/ADC.c **** *  configuration of this component has happened. The variable is initialized to
  61:.\Generated_Source\PSoC5/ADC.c **** *  zero and set to 1 the first time ADC_Start() is called. This allows for
  62:.\Generated_Source\PSoC5/ADC.c **** *  component Re-Start without re-initialization in all subsequent calls to the
  63:.\Generated_Source\PSoC5/ADC.c **** *  ADC_Start() routine.
  64:.\Generated_Source\PSoC5/ADC.c **** *  If re-initialization of the component is required the variable should be set
  65:.\Generated_Source\PSoC5/ADC.c **** *  to zero before call of ADC_Start() routine, or the user may call
  66:.\Generated_Source\PSoC5/ADC.c **** *  ADC_Init() and ADC_Enable() as done in the
  67:.\Generated_Source\PSoC5/ADC.c **** *  ADC_Start() routine.
  68:.\Generated_Source\PSoC5/ADC.c **** *
  69:.\Generated_Source\PSoC5/ADC.c **** * Side Effect:
  70:.\Generated_Source\PSoC5/ADC.c **** *  If the initVar variable is already set, this function only calls the
  71:.\Generated_Source\PSoC5/ADC.c **** *  ADC_Enable() function.
  72:.\Generated_Source\PSoC5/ADC.c **** *
  73:.\Generated_Source\PSoC5/ADC.c **** *******************************************************************************/
  74:.\Generated_Source\PSoC5/ADC.c **** void ADC_Start(void)
  75:.\Generated_Source\PSoC5/ADC.c **** {
  76:.\Generated_Source\PSoC5/ADC.c **** 
  77:.\Generated_Source\PSoC5/ADC.c ****     /* If not Initialized then initialize all required hardware and software */
  78:.\Generated_Source\PSoC5/ADC.c ****     if(ADC_initVar == 0u)
  79:.\Generated_Source\PSoC5/ADC.c ****     {
  80:.\Generated_Source\PSoC5/ADC.c ****         ADC_Init();
  81:.\Generated_Source\PSoC5/ADC.c ****         ADC_initVar = 1u;
  82:.\Generated_Source\PSoC5/ADC.c ****     }
  83:.\Generated_Source\PSoC5/ADC.c ****     ADC_Enable();
  84:.\Generated_Source\PSoC5/ADC.c **** }
  85:.\Generated_Source\PSoC5/ADC.c **** 
  86:.\Generated_Source\PSoC5/ADC.c **** 
  87:.\Generated_Source\PSoC5/ADC.c **** /*******************************************************************************
  88:.\Generated_Source\PSoC5/ADC.c **** * Function Name: ADC_Init
  89:.\Generated_Source\PSoC5/ADC.c **** ********************************************************************************
ARM GAS  C:\Users\Digi-Key\AppData\Local\Temp\ccWaxdFd.s 			page 3


  90:.\Generated_Source\PSoC5/ADC.c **** *
  91:.\Generated_Source\PSoC5/ADC.c **** * Summary:
  92:.\Generated_Source\PSoC5/ADC.c **** *  Initialize component's parameters to the parameters set by user in the
  93:.\Generated_Source\PSoC5/ADC.c **** *  customizer of the component placed onto schematic. Usually called in
  94:.\Generated_Source\PSoC5/ADC.c **** *  ADC_Start().
  95:.\Generated_Source\PSoC5/ADC.c **** *
  96:.\Generated_Source\PSoC5/ADC.c **** * Parameters:
  97:.\Generated_Source\PSoC5/ADC.c **** *  None.
  98:.\Generated_Source\PSoC5/ADC.c **** *
  99:.\Generated_Source\PSoC5/ADC.c **** * Return:
 100:.\Generated_Source\PSoC5/ADC.c **** *  None.
 101:.\Generated_Source\PSoC5/ADC.c **** *
 102:.\Generated_Source\PSoC5/ADC.c **** * Global variables:
 103:.\Generated_Source\PSoC5/ADC.c **** *  The ADC_offset variable is initialized to 0.
 104:.\Generated_Source\PSoC5/ADC.c **** *
 105:.\Generated_Source\PSoC5/ADC.c **** *******************************************************************************/
 106:.\Generated_Source\PSoC5/ADC.c **** void ADC_Init(void)
 107:.\Generated_Source\PSoC5/ADC.c **** {
 108:.\Generated_Source\PSoC5/ADC.c **** 
 109:.\Generated_Source\PSoC5/ADC.c ****     /* This is only valid if there is an internal clock */
 110:.\Generated_Source\PSoC5/ADC.c ****     #if(ADC_DEFAULT_INTERNAL_CLK)
 111:.\Generated_Source\PSoC5/ADC.c ****         ADC_theACLK_SetMode(CYCLK_DUTY);
 112:.\Generated_Source\PSoC5/ADC.c ****     #endif /* End ADC_DEFAULT_INTERNAL_CLK */
 113:.\Generated_Source\PSoC5/ADC.c **** 
 114:.\Generated_Source\PSoC5/ADC.c ****     #if(ADC_IRQ_REMOVE == 0u)
 115:.\Generated_Source\PSoC5/ADC.c ****         /* Start and set interrupt vector */
 116:.\Generated_Source\PSoC5/ADC.c ****         CyIntSetPriority(ADC_INTC_NUMBER, ADC_INTC_PRIOR_NUMBER);
 117:.\Generated_Source\PSoC5/ADC.c ****         (void)CyIntSetVector(ADC_INTC_NUMBER, &ADC_ISR);
 118:.\Generated_Source\PSoC5/ADC.c ****     #endif   /* End ADC_IRQ_REMOVE */
 119:.\Generated_Source\PSoC5/ADC.c **** 
 120:.\Generated_Source\PSoC5/ADC.c ****     /* Enable IRQ mode*/
 121:.\Generated_Source\PSoC5/ADC.c ****     ADC_SAR_CSR1_REG |= ADC_SAR_IRQ_MASK_EN | ADC_SAR_IRQ_MODE_EDGE;
 122:.\Generated_Source\PSoC5/ADC.c **** 
 123:.\Generated_Source\PSoC5/ADC.c ****     /*Set SAR ADC resolution ADC */
 124:.\Generated_Source\PSoC5/ADC.c ****     ADC_SetResolution(ADC_DEFAULT_RESOLUTION);
 125:.\Generated_Source\PSoC5/ADC.c ****     ADC_offset = 0;
 126:.\Generated_Source\PSoC5/ADC.c **** }
 127:.\Generated_Source\PSoC5/ADC.c **** 
 128:.\Generated_Source\PSoC5/ADC.c **** 
 129:.\Generated_Source\PSoC5/ADC.c **** /*******************************************************************************
 130:.\Generated_Source\PSoC5/ADC.c **** * Function Name: ADC_Enable
 131:.\Generated_Source\PSoC5/ADC.c **** ********************************************************************************
 132:.\Generated_Source\PSoC5/ADC.c **** *
 133:.\Generated_Source\PSoC5/ADC.c **** * Summary:
 134:.\Generated_Source\PSoC5/ADC.c **** *  Enables the reference, clock and power for SAR ADC.
 135:.\Generated_Source\PSoC5/ADC.c **** *
 136:.\Generated_Source\PSoC5/ADC.c **** * Parameters:
 137:.\Generated_Source\PSoC5/ADC.c **** *  None.
 138:.\Generated_Source\PSoC5/ADC.c **** *
 139:.\Generated_Source\PSoC5/ADC.c **** * Return:
 140:.\Generated_Source\PSoC5/ADC.c **** *  None.
 141:.\Generated_Source\PSoC5/ADC.c **** *
 142:.\Generated_Source\PSoC5/ADC.c **** *******************************************************************************/
 143:.\Generated_Source\PSoC5/ADC.c **** void ADC_Enable(void)
 144:.\Generated_Source\PSoC5/ADC.c **** {
 145:.\Generated_Source\PSoC5/ADC.c ****     uint8 tmpReg;
 146:.\Generated_Source\PSoC5/ADC.c ****     uint8 enableInterrupts;
ARM GAS  C:\Users\Digi-Key\AppData\Local\Temp\ccWaxdFd.s 			page 4


 147:.\Generated_Source\PSoC5/ADC.c ****     enableInterrupts = CyEnterCriticalSection();
 148:.\Generated_Source\PSoC5/ADC.c **** 
 149:.\Generated_Source\PSoC5/ADC.c ****     /* Enable the SAR ADC block in Active Power Mode */
 150:.\Generated_Source\PSoC5/ADC.c ****     ADC_PWRMGR_SAR_REG |= ADC_ACT_PWR_SAR_EN;
 151:.\Generated_Source\PSoC5/ADC.c **** 
 152:.\Generated_Source\PSoC5/ADC.c ****      /* Enable the SAR ADC in Standby Power Mode*/
 153:.\Generated_Source\PSoC5/ADC.c ****     ADC_STBY_PWRMGR_SAR_REG |= ADC_STBY_PWR_SAR_EN;
 154:.\Generated_Source\PSoC5/ADC.c **** 
 155:.\Generated_Source\PSoC5/ADC.c ****     /* This is only valid if there is an internal clock */
 156:.\Generated_Source\PSoC5/ADC.c ****     #if(ADC_DEFAULT_INTERNAL_CLK)
 157:.\Generated_Source\PSoC5/ADC.c ****         ADC_PWRMGR_CLK_REG |= ADC_ACT_PWR_CLK_EN;
 158:.\Generated_Source\PSoC5/ADC.c ****         ADC_STBY_PWRMGR_CLK_REG |= ADC_STBY_PWR_CLK_EN;
 159:.\Generated_Source\PSoC5/ADC.c ****     #endif /* End ADC_DEFAULT_INTERNAL_CLK */
 160:.\Generated_Source\PSoC5/ADC.c **** 
 161:.\Generated_Source\PSoC5/ADC.c ****     /* Enable VCM buffer and Enable Int Ref Amp */
 162:.\Generated_Source\PSoC5/ADC.c ****     tmpReg = ADC_SAR_CSR3_REG;
 163:.\Generated_Source\PSoC5/ADC.c ****     tmpReg |= ADC_SAR_EN_BUF_VCM_EN;
 164:.\Generated_Source\PSoC5/ADC.c ****     /* PD_BUF_VREF is OFF in External reference or Vdda reference mode */
 165:.\Generated_Source\PSoC5/ADC.c ****     #if((ADC_DEFAULT_REFERENCE == ADC__EXT_REF) || \
 166:.\Generated_Source\PSoC5/ADC.c ****         (ADC_DEFAULT_RANGE == ADC__VNEG_VDDA_DIFF))
 167:.\Generated_Source\PSoC5/ADC.c ****         tmpReg &= (uint8)~ADC_SAR_EN_BUF_VREF_EN;
 168:.\Generated_Source\PSoC5/ADC.c ****     #else /* In INTREF or INTREF Bypassed this buffer is ON */
 169:.\Generated_Source\PSoC5/ADC.c ****         tmpReg |= ADC_SAR_EN_BUF_VREF_EN;
 170:.\Generated_Source\PSoC5/ADC.c ****     #endif /* ADC_DEFAULT_REFERENCE == ADC__EXT_REF */
 171:.\Generated_Source\PSoC5/ADC.c ****     ADC_SAR_CSR3_REG = tmpReg;
 172:.\Generated_Source\PSoC5/ADC.c **** 
 173:.\Generated_Source\PSoC5/ADC.c ****     /* Set reference for ADC */
 174:.\Generated_Source\PSoC5/ADC.c ****     #if(ADC_DEFAULT_RANGE == ADC__VNEG_VDDA_DIFF)
 175:.\Generated_Source\PSoC5/ADC.c ****         #if(ADC_DEFAULT_REFERENCE == ADC__EXT_REF)
 176:.\Generated_Source\PSoC5/ADC.c ****             ADC_SAR_CSR6_REG = ADC_INT_BYPASS_EXT_VREF; /* S2 */
 177:.\Generated_Source\PSoC5/ADC.c ****         #else /* Internal Vdda reference or obsolete bypass mode */
 178:.\Generated_Source\PSoC5/ADC.c ****             ADC_SAR_CSR6_REG = ADC_VDDA_VREF;           /* S7 */
 179:.\Generated_Source\PSoC5/ADC.c ****         #endif /* ADC_DEFAULT_REFERENCE == ADC__EXT_REF */
 180:.\Generated_Source\PSoC5/ADC.c ****     #else  /* Reference goes through internal buffer */
 181:.\Generated_Source\PSoC5/ADC.c ****         #if(ADC_DEFAULT_REFERENCE == ADC__INT_REF_NOT_BYPASSED)
 182:.\Generated_Source\PSoC5/ADC.c ****             ADC_SAR_CSR6_REG = ADC_INT_VREF;            /* S3 + S4 */
 183:.\Generated_Source\PSoC5/ADC.c ****         #else /* INTREF Bypassed of External */
 184:.\Generated_Source\PSoC5/ADC.c ****             ADC_SAR_CSR6_REG = ADC_INT_BYPASS_EXT_VREF; /* S2 */
 185:.\Generated_Source\PSoC5/ADC.c ****         #endif /* ADC_DEFAULT_REFERENCE == ADC__INT_REF_NOT_BYPASSED */
 186:.\Generated_Source\PSoC5/ADC.c ****     #endif /* VNEG_VDDA_DIFF */
 187:.\Generated_Source\PSoC5/ADC.c **** 
 188:.\Generated_Source\PSoC5/ADC.c ****     /* Low non-overlap delay for sampling clock signals (for 1MSPS) */
 189:.\Generated_Source\PSoC5/ADC.c ****     #if(ADC_HIGH_POWER_PULSE == 0u) /* MinPulseWidth <= 50 ns */
 190:.\Generated_Source\PSoC5/ADC.c ****         ADC_SAR_CSR5_REG &= (uint8)~ADC_SAR_DLY_INC;
 191:.\Generated_Source\PSoC5/ADC.c ****     #else /* Set High non-overlap delay for sampling clock signals (for <500KSPS)*/
 192:.\Generated_Source\PSoC5/ADC.c ****         ADC_SAR_CSR5_REG |= ADC_SAR_DLY_INC;
 193:.\Generated_Source\PSoC5/ADC.c ****     #endif /* ADC_HIGH_POWER_PULSE == 0u */
 194:.\Generated_Source\PSoC5/ADC.c **** 
 195:.\Generated_Source\PSoC5/ADC.c ****     /* Increase comparator latch enable delay by 20%, 
 196:.\Generated_Source\PSoC5/ADC.c ****     *  Increase comparator bias current by 30% without impacting delaysDelay 
 197:.\Generated_Source\PSoC5/ADC.c ****     *  Default for 1MSPS) 
 198:.\Generated_Source\PSoC5/ADC.c ****     */
 199:.\Generated_Source\PSoC5/ADC.c ****     #if(ADC_HIGH_POWER_PULSE == 0u)    /* MinPulseWidth <= 50 ns */
 200:.\Generated_Source\PSoC5/ADC.c ****         ADC_SAR_CSR5_REG |= ADC_SAR_SEL_CSEL_DFT_CHAR;
 201:.\Generated_Source\PSoC5/ADC.c ****     #else /* for <500ksps */
 202:.\Generated_Source\PSoC5/ADC.c ****         ADC_SAR_CSR5_REG &= (uint8)~ADC_SAR_SEL_CSEL_DFT_CHAR;
 203:.\Generated_Source\PSoC5/ADC.c ****     #endif /* ADC_HIGH_POWER_PULSE == 0u */
ARM GAS  C:\Users\Digi-Key\AppData\Local\Temp\ccWaxdFd.s 			page 5


 204:.\Generated_Source\PSoC5/ADC.c **** 
 205:.\Generated_Source\PSoC5/ADC.c ****     /* Set default power and other configurations for control register 0 in multiple lines */
 206:.\Generated_Source\PSoC5/ADC.c ****     ADC_SAR_CSR0_REG = (uint8)((uint8)ADC_DEFAULT_POWER << ADC_SAR_POWER_SHIFT)
 207:.\Generated_Source\PSoC5/ADC.c ****     /* SAR_HIZ_CLEAR:   Should not be used for LP */
 208:.\Generated_Source\PSoC5/ADC.c ****     #if ((CY_PSOC5LP) || (ADC_DEFAULT_REFERENCE != ADC__EXT_REF))
 209:.\Generated_Source\PSoC5/ADC.c ****         | ADC_SAR_HIZ_CLEAR
 210:.\Generated_Source\PSoC5/ADC.c ****     #endif /* SAR_HIZ_CLEAR */
 211:.\Generated_Source\PSoC5/ADC.c ****     /*Set Convertion mode */
 212:.\Generated_Source\PSoC5/ADC.c ****     #if(ADC_DEFAULT_CONV_MODE != ADC__FREE_RUNNING)      /* If triggered mode */
 213:.\Generated_Source\PSoC5/ADC.c ****         | ADC_SAR_MX_SOF_UDB           /* source: UDB */
 214:.\Generated_Source\PSoC5/ADC.c ****         | ADC_SAR_SOF_MODE_EDGE        /* Set edge-sensitive sof source */
 215:.\Generated_Source\PSoC5/ADC.c ****     #endif /* ADC_DEFAULT_CONV_MODE */
 216:.\Generated_Source\PSoC5/ADC.c ****     ; /* end of multiple line initialization */
 217:.\Generated_Source\PSoC5/ADC.c **** 
 218:.\Generated_Source\PSoC5/ADC.c ****     ADC_SAR_TR0_REG = ADC_SAR_CAP_TRIM_2;
 219:.\Generated_Source\PSoC5/ADC.c **** 
 220:.\Generated_Source\PSoC5/ADC.c ****     /* Enable clock for SAR ADC*/
 221:.\Generated_Source\PSoC5/ADC.c ****     ADC_SAR_CLK_REG |= ADC_SAR_MX_CLK_EN;
 222:.\Generated_Source\PSoC5/ADC.c **** 
 223:.\Generated_Source\PSoC5/ADC.c ****     CyDelayUs(10u); /* The block is ready to use 10 us after the enable signal is set high. */
 224:.\Generated_Source\PSoC5/ADC.c **** 
 225:.\Generated_Source\PSoC5/ADC.c ****     #if(ADC_IRQ_REMOVE == 0u)
 226:.\Generated_Source\PSoC5/ADC.c ****         /* Clear a pending interrupt */
 227:.\Generated_Source\PSoC5/ADC.c ****         CyIntClearPending(ADC_INTC_NUMBER);
 228:.\Generated_Source\PSoC5/ADC.c ****     #endif   /* End ADC_IRQ_REMOVE */
 229:.\Generated_Source\PSoC5/ADC.c **** 
 230:.\Generated_Source\PSoC5/ADC.c ****     CyExitCriticalSection(enableInterrupts);
 231:.\Generated_Source\PSoC5/ADC.c **** }
 232:.\Generated_Source\PSoC5/ADC.c **** 
 233:.\Generated_Source\PSoC5/ADC.c **** 
 234:.\Generated_Source\PSoC5/ADC.c **** /*******************************************************************************
 235:.\Generated_Source\PSoC5/ADC.c **** * Function Name: ADC_Stop
 236:.\Generated_Source\PSoC5/ADC.c **** ********************************************************************************
 237:.\Generated_Source\PSoC5/ADC.c **** *
 238:.\Generated_Source\PSoC5/ADC.c **** * Summary:
 239:.\Generated_Source\PSoC5/ADC.c **** *  Stops ADC conversions and puts the ADC into its lowest power mode.
 240:.\Generated_Source\PSoC5/ADC.c **** *
 241:.\Generated_Source\PSoC5/ADC.c **** * Parameters:
 242:.\Generated_Source\PSoC5/ADC.c **** *  None.
 243:.\Generated_Source\PSoC5/ADC.c **** *
 244:.\Generated_Source\PSoC5/ADC.c **** * Return:
 245:.\Generated_Source\PSoC5/ADC.c **** *  None.
 246:.\Generated_Source\PSoC5/ADC.c **** *
 247:.\Generated_Source\PSoC5/ADC.c **** *******************************************************************************/
 248:.\Generated_Source\PSoC5/ADC.c **** void ADC_Stop(void)
 249:.\Generated_Source\PSoC5/ADC.c **** {
 250:.\Generated_Source\PSoC5/ADC.c ****     uint8 enableInterrupts;
 251:.\Generated_Source\PSoC5/ADC.c ****     enableInterrupts = CyEnterCriticalSection();
 252:.\Generated_Source\PSoC5/ADC.c **** 
 253:.\Generated_Source\PSoC5/ADC.c ****     /* Stop all conversions */
 254:.\Generated_Source\PSoC5/ADC.c ****     ADC_SAR_CSR0_REG &= (uint8)~ADC_SAR_SOF_START_CONV;
 255:.\Generated_Source\PSoC5/ADC.c ****     /* Disable the SAR ADC block in Active Power Mode */
 256:.\Generated_Source\PSoC5/ADC.c ****     ADC_PWRMGR_SAR_REG &= (uint8)~ADC_ACT_PWR_SAR_EN;
 257:.\Generated_Source\PSoC5/ADC.c ****     /* Disable the SAR ADC in Standby Power Mode */
 258:.\Generated_Source\PSoC5/ADC.c ****     ADC_STBY_PWRMGR_SAR_REG &= (uint8)~ADC_STBY_PWR_SAR_EN;
 259:.\Generated_Source\PSoC5/ADC.c **** 
 260:.\Generated_Source\PSoC5/ADC.c ****     /* This is only valid if there is an internal clock */
ARM GAS  C:\Users\Digi-Key\AppData\Local\Temp\ccWaxdFd.s 			page 6


 261:.\Generated_Source\PSoC5/ADC.c ****     #if(ADC_DEFAULT_INTERNAL_CLK)
 262:.\Generated_Source\PSoC5/ADC.c ****         ADC_PWRMGR_CLK_REG &= (uint8)~ADC_ACT_PWR_CLK_EN;
 263:.\Generated_Source\PSoC5/ADC.c ****         ADC_STBY_PWRMGR_CLK_REG &= (uint8)~ADC_STBY_PWR_CLK_EN;
 264:.\Generated_Source\PSoC5/ADC.c ****     #endif /* End ADC_DEFAULT_INTERNAL_CLK */
 265:.\Generated_Source\PSoC5/ADC.c **** 
 266:.\Generated_Source\PSoC5/ADC.c ****     CyExitCriticalSection(enableInterrupts);
 267:.\Generated_Source\PSoC5/ADC.c **** 
 268:.\Generated_Source\PSoC5/ADC.c **** }
 269:.\Generated_Source\PSoC5/ADC.c **** 
 270:.\Generated_Source\PSoC5/ADC.c **** 
 271:.\Generated_Source\PSoC5/ADC.c **** /*******************************************************************************
 272:.\Generated_Source\PSoC5/ADC.c **** * Function Name: ADC_SetPower
 273:.\Generated_Source\PSoC5/ADC.c **** ********************************************************************************
 274:.\Generated_Source\PSoC5/ADC.c **** *
 275:.\Generated_Source\PSoC5/ADC.c **** * Summary:
 276:.\Generated_Source\PSoC5/ADC.c **** *  Sets the operational power of the ADC. You should use the higher power
 277:.\Generated_Source\PSoC5/ADC.c **** *  settings with faster clock speeds.
 278:.\Generated_Source\PSoC5/ADC.c **** *
 279:.\Generated_Source\PSoC5/ADC.c **** * Parameters:
 280:.\Generated_Source\PSoC5/ADC.c **** *  power:  Power setting for ADC
 281:.\Generated_Source\PSoC5/ADC.c **** *  0 ->    Normal
 282:.\Generated_Source\PSoC5/ADC.c **** *  1 ->    Medium power
 283:.\Generated_Source\PSoC5/ADC.c **** *  2 ->    1.25 power
 284:.\Generated_Source\PSoC5/ADC.c **** *  3 ->    Minimum power.
 285:.\Generated_Source\PSoC5/ADC.c **** *
 286:.\Generated_Source\PSoC5/ADC.c **** * Return:
 287:.\Generated_Source\PSoC5/ADC.c **** *  None.
 288:.\Generated_Source\PSoC5/ADC.c **** *
 289:.\Generated_Source\PSoC5/ADC.c **** *******************************************************************************/
 290:.\Generated_Source\PSoC5/ADC.c **** void ADC_SetPower(uint8 power)
 291:.\Generated_Source\PSoC5/ADC.c **** {
 292:.\Generated_Source\PSoC5/ADC.c ****     uint8 tmpReg;
 293:.\Generated_Source\PSoC5/ADC.c **** 
 294:.\Generated_Source\PSoC5/ADC.c ****     /* mask off invalid power settings */
 295:.\Generated_Source\PSoC5/ADC.c ****     power &= ADC_SAR_API_POWER_MASK;
 296:.\Generated_Source\PSoC5/ADC.c **** 
 297:.\Generated_Source\PSoC5/ADC.c ****     /* Set Power parameter  */
 298:.\Generated_Source\PSoC5/ADC.c ****     tmpReg = ADC_SAR_CSR0_REG & (uint8)~ADC_SAR_POWER_MASK;
 299:.\Generated_Source\PSoC5/ADC.c ****     tmpReg |= (uint8)(power << ADC_SAR_POWER_SHIFT);
 300:.\Generated_Source\PSoC5/ADC.c ****     ADC_SAR_CSR0_REG = tmpReg;
 301:.\Generated_Source\PSoC5/ADC.c **** }
 302:.\Generated_Source\PSoC5/ADC.c **** 
 303:.\Generated_Source\PSoC5/ADC.c **** 
 304:.\Generated_Source\PSoC5/ADC.c **** /*******************************************************************************
 305:.\Generated_Source\PSoC5/ADC.c **** * Function Name: ADC_SetResolution
 306:.\Generated_Source\PSoC5/ADC.c **** ********************************************************************************
 307:.\Generated_Source\PSoC5/ADC.c **** *
 308:.\Generated_Source\PSoC5/ADC.c **** * Summary:
 309:.\Generated_Source\PSoC5/ADC.c **** *  Sets the Relution of the SAR.
 310:.\Generated_Source\PSoC5/ADC.c **** *
 311:.\Generated_Source\PSoC5/ADC.c **** * Parameters:
 312:.\Generated_Source\PSoC5/ADC.c **** *  resolution:
 313:.\Generated_Source\PSoC5/ADC.c **** *  12 ->    RES12
 314:.\Generated_Source\PSoC5/ADC.c **** *  10 ->    RES10
 315:.\Generated_Source\PSoC5/ADC.c **** *  8  ->    RES8
 316:.\Generated_Source\PSoC5/ADC.c **** *
 317:.\Generated_Source\PSoC5/ADC.c **** * Return:
ARM GAS  C:\Users\Digi-Key\AppData\Local\Temp\ccWaxdFd.s 			page 7


 318:.\Generated_Source\PSoC5/ADC.c **** *  None.
 319:.\Generated_Source\PSoC5/ADC.c **** *
 320:.\Generated_Source\PSoC5/ADC.c **** * Side Effects:
 321:.\Generated_Source\PSoC5/ADC.c **** *  The ADC resolution cannot be changed during a conversion cycle. The
 322:.\Generated_Source\PSoC5/ADC.c **** *  recommended best practice is to stop conversions with
 323:.\Generated_Source\PSoC5/ADC.c **** *  ADC_StopConvert(), change the resolution, then restart the
 324:.\Generated_Source\PSoC5/ADC.c **** *  conversions with ADC_StartConvert().
 325:.\Generated_Source\PSoC5/ADC.c **** *  If you decide not to stop conversions before calling this API, you
 326:.\Generated_Source\PSoC5/ADC.c **** *  should use ADC_IsEndConversion() to wait until conversion is complete
 327:.\Generated_Source\PSoC5/ADC.c **** *  before changing the resolution.
 328:.\Generated_Source\PSoC5/ADC.c **** *  If you call ADC_SetResolution() during a conversion, the resolution will
 329:.\Generated_Source\PSoC5/ADC.c **** *  not be changed until the current conversion is complete. Data will not be
 330:.\Generated_Source\PSoC5/ADC.c **** *  available in the new resolution for another 6 + "New Resolution(in bits)"
 331:.\Generated_Source\PSoC5/ADC.c **** *  clock cycles.
 332:.\Generated_Source\PSoC5/ADC.c **** *  You may need add a delay of this number of clock cycles after
 333:.\Generated_Source\PSoC5/ADC.c **** *  ADC_SetResolution() is called before data is valid again.
 334:.\Generated_Source\PSoC5/ADC.c **** *  Affects ADC_CountsTo_Volts(), ADC_CountsTo_mVolts(), and
 335:.\Generated_Source\PSoC5/ADC.c **** *  ADC_CountsTo_uVolts() by calculating the correct conversion between ADC
 336:.\Generated_Source\PSoC5/ADC.c **** *  counts and the applied input voltage. Calculation depends on resolution,
 337:.\Generated_Source\PSoC5/ADC.c **** *  input range, and voltage reference.
 338:.\Generated_Source\PSoC5/ADC.c **** *
 339:.\Generated_Source\PSoC5/ADC.c **** *******************************************************************************/
 340:.\Generated_Source\PSoC5/ADC.c **** void ADC_SetResolution(uint8 resolution)
 341:.\Generated_Source\PSoC5/ADC.c **** {
 342:.\Generated_Source\PSoC5/ADC.c ****     uint8 tmpReg;
 343:.\Generated_Source\PSoC5/ADC.c **** 
 344:.\Generated_Source\PSoC5/ADC.c ****     /* Set SAR ADC resolution and sample width: 18 conversion cycles at 12bits + 1 gap */
 345:.\Generated_Source\PSoC5/ADC.c ****     switch (resolution)
 346:.\Generated_Source\PSoC5/ADC.c ****     {
 347:.\Generated_Source\PSoC5/ADC.c ****         case (uint8)ADC__BITS_12:
 348:.\Generated_Source\PSoC5/ADC.c ****             tmpReg = ADC_SAR_RESOLUTION_12BIT | ADC_SAR_SAMPLE_WIDTH;
 349:.\Generated_Source\PSoC5/ADC.c ****             break;
 350:.\Generated_Source\PSoC5/ADC.c ****         case (uint8)ADC__BITS_10:
 351:.\Generated_Source\PSoC5/ADC.c ****             tmpReg = ADC_SAR_RESOLUTION_10BIT | ADC_SAR_SAMPLE_WIDTH;
 352:.\Generated_Source\PSoC5/ADC.c ****             break;
 353:.\Generated_Source\PSoC5/ADC.c ****         case (uint8)ADC__BITS_8:
 354:.\Generated_Source\PSoC5/ADC.c ****             tmpReg = ADC_SAR_RESOLUTION_8BIT | ADC_SAR_SAMPLE_WIDTH;
 355:.\Generated_Source\PSoC5/ADC.c ****             break;
 356:.\Generated_Source\PSoC5/ADC.c ****         default:
 357:.\Generated_Source\PSoC5/ADC.c ****             tmpReg = ADC_SAR_RESOLUTION_12BIT | ADC_SAR_SAMPLE_WIDTH;
 358:.\Generated_Source\PSoC5/ADC.c ****             /* Halt CPU in debug mode if resolution is out of valid range */
 359:.\Generated_Source\PSoC5/ADC.c ****             CYASSERT(0u != 0u);
 360:.\Generated_Source\PSoC5/ADC.c ****             break;
 361:.\Generated_Source\PSoC5/ADC.c ****     }
 362:.\Generated_Source\PSoC5/ADC.c ****     ADC_SAR_CSR2_REG = tmpReg;
 363:.\Generated_Source\PSoC5/ADC.c **** 
 364:.\Generated_Source\PSoC5/ADC.c ****      /* Calculate gain for convert counts to volts */
 365:.\Generated_Source\PSoC5/ADC.c ****     ADC_CalcGain(resolution);
 366:.\Generated_Source\PSoC5/ADC.c **** }
 367:.\Generated_Source\PSoC5/ADC.c **** 
 368:.\Generated_Source\PSoC5/ADC.c **** 
 369:.\Generated_Source\PSoC5/ADC.c **** #if(ADC_DEFAULT_CONV_MODE != ADC__HARDWARE_TRIGGER)
 370:.\Generated_Source\PSoC5/ADC.c **** 
 371:.\Generated_Source\PSoC5/ADC.c **** 
 372:.\Generated_Source\PSoC5/ADC.c ****     /*******************************************************************************
 373:.\Generated_Source\PSoC5/ADC.c ****     * Function Name: ADC_StartConvert
 374:.\Generated_Source\PSoC5/ADC.c ****     ********************************************************************************
ARM GAS  C:\Users\Digi-Key\AppData\Local\Temp\ccWaxdFd.s 			page 8


 375:.\Generated_Source\PSoC5/ADC.c ****     *
 376:.\Generated_Source\PSoC5/ADC.c ****     * Summary:
 377:.\Generated_Source\PSoC5/ADC.c ****     *  Forces the ADC to initiate a conversion. In free-running mode, the ADC runs
 378:.\Generated_Source\PSoC5/ADC.c ****     *  continuously. In software trigger mode, the function also acts as a software
 379:.\Generated_Source\PSoC5/ADC.c ****     *  version of the SOC and every conversion must be triggered by
 380:.\Generated_Source\PSoC5/ADC.c ****     *  ADC_StartConvert(). This function is not available when the
 381:.\Generated_Source\PSoC5/ADC.c ****     *  Hardware Trigger sample mode is selected.
 382:.\Generated_Source\PSoC5/ADC.c ****     *
 383:.\Generated_Source\PSoC5/ADC.c ****     * Parameters:
 384:.\Generated_Source\PSoC5/ADC.c ****     *  None.
 385:.\Generated_Source\PSoC5/ADC.c ****     *
 386:.\Generated_Source\PSoC5/ADC.c ****     * Return:
 387:.\Generated_Source\PSoC5/ADC.c ****     *  None.
 388:.\Generated_Source\PSoC5/ADC.c ****     *
 389:.\Generated_Source\PSoC5/ADC.c ****     * Theory:
 390:.\Generated_Source\PSoC5/ADC.c ****     *  Forces the ADC to initiate a conversion. In Free Running mode, the ADC will
 391:.\Generated_Source\PSoC5/ADC.c ****     *  run continuously. In a software trigger mode the function also acts as a
 392:.\Generated_Source\PSoC5/ADC.c ****     *  software version of the SOC. Here every conversion has to be triggered by
 393:.\Generated_Source\PSoC5/ADC.c ****     *  the routine. This writes into the SOC bit in SAR_CTRL reg.
 394:.\Generated_Source\PSoC5/ADC.c ****     *
 395:.\Generated_Source\PSoC5/ADC.c ****     * Side Effects:
 396:.\Generated_Source\PSoC5/ADC.c ****     *  In a software trigger mode the function switches source for SOF from the
 397:.\Generated_Source\PSoC5/ADC.c ****     *  external pin to the internal SOF generation. Application should not call
 398:.\Generated_Source\PSoC5/ADC.c ****     *  StartConvert if external source used for SOF.
 399:.\Generated_Source\PSoC5/ADC.c ****     *
 400:.\Generated_Source\PSoC5/ADC.c ****     *******************************************************************************/
 401:.\Generated_Source\PSoC5/ADC.c ****     void ADC_StartConvert(void)
 402:.\Generated_Source\PSoC5/ADC.c ****     {
 403:.\Generated_Source\PSoC5/ADC.c ****         #if(ADC_DEFAULT_CONV_MODE != ADC__FREE_RUNNING)  /* If software triggered mode */
 404:.\Generated_Source\PSoC5/ADC.c ****             ADC_SAR_CSR0_REG &= (uint8)~ADC_SAR_MX_SOF_UDB;   /* source: SOF bit */
 405:.\Generated_Source\PSoC5/ADC.c ****         #endif /* End ADC_DEFAULT_CONV_MODE */
 406:.\Generated_Source\PSoC5/ADC.c **** 
 407:.\Generated_Source\PSoC5/ADC.c ****         /* Start the conversion */
 408:.\Generated_Source\PSoC5/ADC.c ****         ADC_SAR_CSR0_REG |= ADC_SAR_SOF_START_CONV;
 409:.\Generated_Source\PSoC5/ADC.c ****     }
 410:.\Generated_Source\PSoC5/ADC.c **** 
 411:.\Generated_Source\PSoC5/ADC.c **** 
 412:.\Generated_Source\PSoC5/ADC.c ****     /*******************************************************************************
 413:.\Generated_Source\PSoC5/ADC.c ****     * Function Name: ADC_StopConvert
 414:.\Generated_Source\PSoC5/ADC.c ****     ********************************************************************************
 415:.\Generated_Source\PSoC5/ADC.c ****     *
 416:.\Generated_Source\PSoC5/ADC.c ****     * Summary:
 417:.\Generated_Source\PSoC5/ADC.c ****     *  Forces the ADC to stop conversions. If a conversion is currently executing,
 418:.\Generated_Source\PSoC5/ADC.c ****     *  that conversion will complete, but no further conversions will occur. This
 419:.\Generated_Source\PSoC5/ADC.c ****     *  function is not available when the Hardware Trigger sample mode is selected.
 420:.\Generated_Source\PSoC5/ADC.c ****     *
 421:.\Generated_Source\PSoC5/ADC.c ****     * Parameters:
 422:.\Generated_Source\PSoC5/ADC.c ****     *  None.
 423:.\Generated_Source\PSoC5/ADC.c ****     *
 424:.\Generated_Source\PSoC5/ADC.c ****     * Return:
 425:.\Generated_Source\PSoC5/ADC.c ****     *  None.
 426:.\Generated_Source\PSoC5/ADC.c ****     *
 427:.\Generated_Source\PSoC5/ADC.c ****     * Theory:
 428:.\Generated_Source\PSoC5/ADC.c ****     *  Stops ADC conversion in Free Running mode.
 429:.\Generated_Source\PSoC5/ADC.c ****     *
 430:.\Generated_Source\PSoC5/ADC.c ****     * Side Effects:
 431:.\Generated_Source\PSoC5/ADC.c ****     *  In Software Trigger sample mode, this function sets a software version of the
ARM GAS  C:\Users\Digi-Key\AppData\Local\Temp\ccWaxdFd.s 			page 9


 432:.\Generated_Source\PSoC5/ADC.c ****     *  SOC to low level and switches the SOC source to hardware SOC input.
 433:.\Generated_Source\PSoC5/ADC.c ****     *
 434:.\Generated_Source\PSoC5/ADC.c ****     *******************************************************************************/
 435:.\Generated_Source\PSoC5/ADC.c ****     void ADC_StopConvert(void)
 436:.\Generated_Source\PSoC5/ADC.c ****     {
 437:.\Generated_Source\PSoC5/ADC.c ****         /* Stop all conversions */
 438:.\Generated_Source\PSoC5/ADC.c ****         ADC_SAR_CSR0_REG &= (uint8)~ADC_SAR_SOF_START_CONV;
 439:.\Generated_Source\PSoC5/ADC.c **** 
 440:.\Generated_Source\PSoC5/ADC.c ****         #if(ADC_DEFAULT_CONV_MODE != ADC__FREE_RUNNING)  /* If software triggered mode */
 441:.\Generated_Source\PSoC5/ADC.c ****             /* Return source to UDB for hardware SOF signal */
 442:.\Generated_Source\PSoC5/ADC.c ****             ADC_SAR_CSR0_REG |= ADC_SAR_MX_SOF_UDB;    /* source: UDB */
 443:.\Generated_Source\PSoC5/ADC.c ****         #endif /* End ADC_DEFAULT_CONV_MODE */
 444:.\Generated_Source\PSoC5/ADC.c **** 
 445:.\Generated_Source\PSoC5/ADC.c ****     }
 446:.\Generated_Source\PSoC5/ADC.c **** 
 447:.\Generated_Source\PSoC5/ADC.c **** #endif /* End ADC_DEFAULT_CONV_MODE != ADC__HARDWARE_TRIGGER */
 448:.\Generated_Source\PSoC5/ADC.c **** 
 449:.\Generated_Source\PSoC5/ADC.c **** 
 450:.\Generated_Source\PSoC5/ADC.c **** /*******************************************************************************
 451:.\Generated_Source\PSoC5/ADC.c **** * Function Name: ADC_IsEndConversion
 452:.\Generated_Source\PSoC5/ADC.c **** ********************************************************************************
 453:.\Generated_Source\PSoC5/ADC.c **** *
 454:.\Generated_Source\PSoC5/ADC.c **** * Summary:
 455:.\Generated_Source\PSoC5/ADC.c **** *  Immediately returns the status of the conversion or does not return
 456:.\Generated_Source\PSoC5/ADC.c **** *  (blocking) until the conversion completes, depending on the retMode
 457:.\Generated_Source\PSoC5/ADC.c **** *  parameter.
 458:.\Generated_Source\PSoC5/ADC.c **** *
 459:.\Generated_Source\PSoC5/ADC.c **** * Parameters:
 460:.\Generated_Source\PSoC5/ADC.c **** *  retMode:  Check conversion return mode.
 461:.\Generated_Source\PSoC5/ADC.c **** *   ADC_RETURN_STATUS: Immediately returns the status. If the
 462:.\Generated_Source\PSoC5/ADC.c **** *     value returned is zero, the conversion is not complete, and this function
 463:.\Generated_Source\PSoC5/ADC.c **** *     should be retried until a nonzero result is returned.
 464:.\Generated_Source\PSoC5/ADC.c **** *   ADC_WAIT_FOR_RESULT: Does not return a result until the ADC
 465:.\Generated_Source\PSoC5/ADC.c **** *     conversion is complete.
 466:.\Generated_Source\PSoC5/ADC.c **** *
 467:.\Generated_Source\PSoC5/ADC.c **** * Return:
 468:.\Generated_Source\PSoC5/ADC.c **** *  (uint8)  0 =>  The ADC is still calculating the last result.
 469:.\Generated_Source\PSoC5/ADC.c **** *           1 =>  The last conversion is complete.
 470:.\Generated_Source\PSoC5/ADC.c **** *
 471:.\Generated_Source\PSoC5/ADC.c **** * Side Effects:
 472:.\Generated_Source\PSoC5/ADC.c **** *  This function reads the end of conversion status, which is cleared on read.
 473:.\Generated_Source\PSoC5/ADC.c **** *
 474:.\Generated_Source\PSoC5/ADC.c **** *******************************************************************************/
 475:.\Generated_Source\PSoC5/ADC.c **** uint8 ADC_IsEndConversion(uint8 retMode)
 476:.\Generated_Source\PSoC5/ADC.c **** {
 477:.\Generated_Source\PSoC5/ADC.c ****     uint8 status;
 478:.\Generated_Source\PSoC5/ADC.c **** 
 479:.\Generated_Source\PSoC5/ADC.c ****     do
 480:.\Generated_Source\PSoC5/ADC.c ****     {
 481:.\Generated_Source\PSoC5/ADC.c ****         status = ADC_SAR_CSR1_REG & ADC_SAR_EOF_1;
 482:.\Generated_Source\PSoC5/ADC.c ****     } while ((status != ADC_SAR_EOF_1) && (retMode == ADC_WAIT_FOR_RESULT));
 483:.\Generated_Source\PSoC5/ADC.c ****     /* If convertion complete, wait until EOF bit released */
 484:.\Generated_Source\PSoC5/ADC.c ****     if(status == ADC_SAR_EOF_1)
 485:.\Generated_Source\PSoC5/ADC.c ****     {
 486:.\Generated_Source\PSoC5/ADC.c ****         /* wait one ADC clock to let the EOC status bit release */
 487:.\Generated_Source\PSoC5/ADC.c ****         CyDelayUs(1u);
 488:.\Generated_Source\PSoC5/ADC.c ****         /* Do the unconditional read operation of the CSR1 register to make sure the EOC bit has be
ARM GAS  C:\Users\Digi-Key\AppData\Local\Temp\ccWaxdFd.s 			page 10


 489:.\Generated_Source\PSoC5/ADC.c ****         CY_GET_REG8(ADC_SAR_CSR1_PTR);
 490:.\Generated_Source\PSoC5/ADC.c ****     }
 491:.\Generated_Source\PSoC5/ADC.c **** 
 492:.\Generated_Source\PSoC5/ADC.c ****     return(status);
 493:.\Generated_Source\PSoC5/ADC.c **** }
 494:.\Generated_Source\PSoC5/ADC.c **** 
 495:.\Generated_Source\PSoC5/ADC.c **** 
 496:.\Generated_Source\PSoC5/ADC.c **** /*******************************************************************************
 497:.\Generated_Source\PSoC5/ADC.c **** * Function Name: ADC_GetResult8
 498:.\Generated_Source\PSoC5/ADC.c **** ********************************************************************************
 499:.\Generated_Source\PSoC5/ADC.c **** *
 500:.\Generated_Source\PSoC5/ADC.c **** * Summary:
 501:.\Generated_Source\PSoC5/ADC.c **** *  Returns the result of an 8-bit conversion. If the resolution is set greater
 502:.\Generated_Source\PSoC5/ADC.c **** *  than 8 bits, the function returns the LSB of the result.
 503:.\Generated_Source\PSoC5/ADC.c **** *  ADC_IsEndConversion() should be called to verify that the data
 504:.\Generated_Source\PSoC5/ADC.c **** *   sample is ready.
 505:.\Generated_Source\PSoC5/ADC.c **** *
 506:.\Generated_Source\PSoC5/ADC.c **** * Parameters:
 507:.\Generated_Source\PSoC5/ADC.c **** *  None.
 508:.\Generated_Source\PSoC5/ADC.c **** *
 509:.\Generated_Source\PSoC5/ADC.c **** * Return:
 510:.\Generated_Source\PSoC5/ADC.c **** *  The LSB of the last ADC conversion.
 511:.\Generated_Source\PSoC5/ADC.c **** *
 512:.\Generated_Source\PSoC5/ADC.c **** * Global Variables:
 513:.\Generated_Source\PSoC5/ADC.c **** *  ADC_shift - used to convert the ADC counts to the 2s
 514:.\Generated_Source\PSoC5/ADC.c **** *  compliment form.
 515:.\Generated_Source\PSoC5/ADC.c **** *
 516:.\Generated_Source\PSoC5/ADC.c **** * Side Effects:
 517:.\Generated_Source\PSoC5/ADC.c **** *  Converts the ADC counts to the 2s complement form.
 518:.\Generated_Source\PSoC5/ADC.c **** *
 519:.\Generated_Source\PSoC5/ADC.c **** *******************************************************************************/
 520:.\Generated_Source\PSoC5/ADC.c **** int8 ADC_GetResult8( void )
 521:.\Generated_Source\PSoC5/ADC.c **** {
 522:.\Generated_Source\PSoC5/ADC.c ****     return( (int8)ADC_SAR_WRK0_REG - (int8)ADC_shift);
 523:.\Generated_Source\PSoC5/ADC.c **** }
 524:.\Generated_Source\PSoC5/ADC.c **** 
 525:.\Generated_Source\PSoC5/ADC.c **** 
 526:.\Generated_Source\PSoC5/ADC.c **** /*******************************************************************************
 527:.\Generated_Source\PSoC5/ADC.c **** * Function Name: ADC_GetResult16
 528:.\Generated_Source\PSoC5/ADC.c **** ********************************************************************************
 529:.\Generated_Source\PSoC5/ADC.c **** *
 530:.\Generated_Source\PSoC5/ADC.c **** * Summary:
 531:.\Generated_Source\PSoC5/ADC.c **** *  Returns a 16-bit result for a conversion with a result that has a resolution
 532:.\Generated_Source\PSoC5/ADC.c **** *  of 8 to 12 bits.
 533:.\Generated_Source\PSoC5/ADC.c **** *  ADC_IsEndConversion() should be called to verify that the data
 534:.\Generated_Source\PSoC5/ADC.c **** *   sample is ready
 535:.\Generated_Source\PSoC5/ADC.c **** *
 536:.\Generated_Source\PSoC5/ADC.c **** * Parameters:
 537:.\Generated_Source\PSoC5/ADC.c **** *  None.
 538:.\Generated_Source\PSoC5/ADC.c **** *
 539:.\Generated_Source\PSoC5/ADC.c **** * Return:
 540:.\Generated_Source\PSoC5/ADC.c **** *  The 16-bit result of the last ADC conversion
 541:.\Generated_Source\PSoC5/ADC.c **** *
 542:.\Generated_Source\PSoC5/ADC.c **** * Global Variables:
 543:.\Generated_Source\PSoC5/ADC.c **** *  ADC_shift - used to convert the ADC counts to the 2s
 544:.\Generated_Source\PSoC5/ADC.c **** *  compliment form.
 545:.\Generated_Source\PSoC5/ADC.c **** *
ARM GAS  C:\Users\Digi-Key\AppData\Local\Temp\ccWaxdFd.s 			page 11


 546:.\Generated_Source\PSoC5/ADC.c **** * Side Effects:
 547:.\Generated_Source\PSoC5/ADC.c **** *  Converts the ADC counts to the 2s complement form.
 548:.\Generated_Source\PSoC5/ADC.c **** *
 549:.\Generated_Source\PSoC5/ADC.c **** *******************************************************************************/
 550:.\Generated_Source\PSoC5/ADC.c **** int16 ADC_GetResult16( void )
 551:.\Generated_Source\PSoC5/ADC.c **** {
 552:.\Generated_Source\PSoC5/ADC.c ****     uint16 res;
 553:.\Generated_Source\PSoC5/ADC.c **** 
 554:.\Generated_Source\PSoC5/ADC.c ****     res = CY_GET_REG16(ADC_SAR_WRK_PTR);
 555:.\Generated_Source\PSoC5/ADC.c **** 
 556:.\Generated_Source\PSoC5/ADC.c ****     return( (int16)res - ADC_shift );
 557:.\Generated_Source\PSoC5/ADC.c **** }
 558:.\Generated_Source\PSoC5/ADC.c **** 
 559:.\Generated_Source\PSoC5/ADC.c **** 
 560:.\Generated_Source\PSoC5/ADC.c **** /*******************************************************************************
 561:.\Generated_Source\PSoC5/ADC.c **** * Function Name: ADC_SetOffset
 562:.\Generated_Source\PSoC5/ADC.c **** ********************************************************************************
 563:.\Generated_Source\PSoC5/ADC.c **** *
 564:.\Generated_Source\PSoC5/ADC.c **** * Summary:
 565:.\Generated_Source\PSoC5/ADC.c **** *  Sets the ADC offset, which is used by ADC_CountsTo_Volts(),
 566:.\Generated_Source\PSoC5/ADC.c **** *  ADC_CountsTo_mVolts(), and ADC_CountsTo_uVolts()
 567:.\Generated_Source\PSoC5/ADC.c **** *  to subtract the offset from the given reading before calculating the voltage
 568:.\Generated_Source\PSoC5/ADC.c **** *  conversion.
 569:.\Generated_Source\PSoC5/ADC.c **** *
 570:.\Generated_Source\PSoC5/ADC.c **** * Parameters:
 571:.\Generated_Source\PSoC5/ADC.c **** *  int16: This value is measured when the inputs are shorted or connected to
 572:.\Generated_Source\PSoC5/ADC.c ****    the same input voltage.
 573:.\Generated_Source\PSoC5/ADC.c **** *
 574:.\Generated_Source\PSoC5/ADC.c **** * Return:
 575:.\Generated_Source\PSoC5/ADC.c **** *  None.
 576:.\Generated_Source\PSoC5/ADC.c **** *
 577:.\Generated_Source\PSoC5/ADC.c **** * Global Variables:
 578:.\Generated_Source\PSoC5/ADC.c **** *  The ADC_offset variable modified. This variable is used for
 579:.\Generated_Source\PSoC5/ADC.c **** *  offset calibration purpose.
 580:.\Generated_Source\PSoC5/ADC.c **** *  Affects the ADC_CountsTo_Volts,
 581:.\Generated_Source\PSoC5/ADC.c **** *  ADC_CountsTo_mVolts, ADC_CountsTo_uVolts functions
 582:.\Generated_Source\PSoC5/ADC.c **** *  by subtracting the given offset.
 583:.\Generated_Source\PSoC5/ADC.c **** *
 584:.\Generated_Source\PSoC5/ADC.c **** *******************************************************************************/
 585:.\Generated_Source\PSoC5/ADC.c **** void ADC_SetOffset(int16 offset)
 586:.\Generated_Source\PSoC5/ADC.c **** {
 587:.\Generated_Source\PSoC5/ADC.c ****     ADC_offset = offset;
 588:.\Generated_Source\PSoC5/ADC.c **** }
 589:.\Generated_Source\PSoC5/ADC.c **** 
 590:.\Generated_Source\PSoC5/ADC.c **** 
 591:.\Generated_Source\PSoC5/ADC.c **** /*******************************************************************************
 592:.\Generated_Source\PSoC5/ADC.c **** * Function Name: ADC_CalcGain
 593:.\Generated_Source\PSoC5/ADC.c **** ********************************************************************************
 594:.\Generated_Source\PSoC5/ADC.c **** *
 595:.\Generated_Source\PSoC5/ADC.c **** * Summary:
 596:.\Generated_Source\PSoC5/ADC.c **** *  This function calculates the ADC gain in counts per 10 volt.
 597:.\Generated_Source\PSoC5/ADC.c **** *
 598:.\Generated_Source\PSoC5/ADC.c **** * Parameters:
 599:.\Generated_Source\PSoC5/ADC.c **** *  uint8: resolution
 600:.\Generated_Source\PSoC5/ADC.c **** *
 601:.\Generated_Source\PSoC5/ADC.c **** * Return:
 602:.\Generated_Source\PSoC5/ADC.c **** *  None.
ARM GAS  C:\Users\Digi-Key\AppData\Local\Temp\ccWaxdFd.s 			page 12


 603:.\Generated_Source\PSoC5/ADC.c **** *
 604:.\Generated_Source\PSoC5/ADC.c **** * Global Variables:
 605:.\Generated_Source\PSoC5/ADC.c **** *  ADC_shift variable initialized. This variable is used to
 606:.\Generated_Source\PSoC5/ADC.c **** *  convert the ADC counts to the 2s compliment form.
 607:.\Generated_Source\PSoC5/ADC.c **** *  ADC_countsPer10Volt variable initialized. This variable is used
 608:.\Generated_Source\PSoC5/ADC.c **** *  for gain calibration purpose.
 609:.\Generated_Source\PSoC5/ADC.c **** *
 610:.\Generated_Source\PSoC5/ADC.c **** *******************************************************************************/
 611:.\Generated_Source\PSoC5/ADC.c **** static void ADC_CalcGain( uint8 resolution )
 612:.\Generated_Source\PSoC5/ADC.c **** {
  26              		.loc 1 612 0
  27              		.cfi_startproc
  28              		@ args = 0, pretend = 0, frame = 0
  29              		@ frame_needed = 0, uses_anonymous_args = 0
  30              	.LVL0:
  31 0000 08B5     		push	{r3, lr}
  32              		.cfi_def_cfa_offset 8
  33              		.cfi_offset 3, -8
  34              		.cfi_offset 14, -4
 613:.\Generated_Source\PSoC5/ADC.c ****     int32 counts;
 614:.\Generated_Source\PSoC5/ADC.c ****     #if(!((ADC_DEFAULT_RANGE == ADC__VSS_TO_VREF) || \
 615:.\Generated_Source\PSoC5/ADC.c ****          (ADC_DEFAULT_RANGE == ADC__VSSA_TO_VDDA) || \
 616:.\Generated_Source\PSoC5/ADC.c ****          (ADC_DEFAULT_RANGE == ADC__VSSA_TO_VDAC)) )
 617:.\Generated_Source\PSoC5/ADC.c ****         uint16 diff_zero;
 618:.\Generated_Source\PSoC5/ADC.c ****     #endif /* End ADC_DEFAULT_RANGE */
 619:.\Generated_Source\PSoC5/ADC.c **** 
 620:.\Generated_Source\PSoC5/ADC.c ****     switch (resolution)
  35              		.loc 1 620 0
  36 0002 0A28     		cmp	r0, #10
  37 0004 0FD0     		beq	.L7
  38 0006 0C28     		cmp	r0, #12
  39 0008 02D0     		beq	.L4
  40 000a 0828     		cmp	r0, #8
  41 000c 06D1     		bne	.L8
  42 000e 02E0     		b	.L5
  43              	.L4:
 621:.\Generated_Source\PSoC5/ADC.c ****     {
 622:.\Generated_Source\PSoC5/ADC.c ****         case (uint8)ADC__BITS_12:
 623:.\Generated_Source\PSoC5/ADC.c ****             counts = (int32)ADC_SAR_WRK_MAX_12BIT;
  44              		.loc 1 623 0
  45 0010 4FF48053 		mov	r3, #4096
  46 0014 09E0     		b	.L3
  47              	.L5:
  48              	.LVL1:
 624:.\Generated_Source\PSoC5/ADC.c ****             #if(!((ADC_DEFAULT_RANGE == ADC__VSS_TO_VREF) || \
 625:.\Generated_Source\PSoC5/ADC.c ****                  (ADC_DEFAULT_RANGE == ADC__VSSA_TO_VDDA) || \
 626:.\Generated_Source\PSoC5/ADC.c ****                  (ADC_DEFAULT_RANGE == ADC__VSSA_TO_VDAC)) )
 627:.\Generated_Source\PSoC5/ADC.c ****                 diff_zero = ADC_SAR_DIFF_SHIFT;
 628:.\Generated_Source\PSoC5/ADC.c ****             #endif /* End ADC_DEFAULT_RANGE */
 629:.\Generated_Source\PSoC5/ADC.c ****             break;
 630:.\Generated_Source\PSoC5/ADC.c ****         case (uint8)ADC__BITS_10:
 631:.\Generated_Source\PSoC5/ADC.c ****             counts = (int32)ADC_SAR_WRK_MAX_10BIT;
 632:.\Generated_Source\PSoC5/ADC.c ****             #if(!((ADC_DEFAULT_RANGE == ADC__VSS_TO_VREF) || \
 633:.\Generated_Source\PSoC5/ADC.c ****                  (ADC_DEFAULT_RANGE == ADC__VSSA_TO_VDDA) || \
 634:.\Generated_Source\PSoC5/ADC.c ****                  (ADC_DEFAULT_RANGE == ADC__VSSA_TO_VDAC)) )
 635:.\Generated_Source\PSoC5/ADC.c ****                 diff_zero = ADC_SAR_DIFF_SHIFT >> 2u;
 636:.\Generated_Source\PSoC5/ADC.c ****             #endif /* End ADC_DEFAULT_RANGE */
ARM GAS  C:\Users\Digi-Key\AppData\Local\Temp\ccWaxdFd.s 			page 13


 637:.\Generated_Source\PSoC5/ADC.c ****             break;
 638:.\Generated_Source\PSoC5/ADC.c ****         case (uint8)ADC__BITS_8:
 639:.\Generated_Source\PSoC5/ADC.c ****             counts = (int32)ADC_SAR_WRK_MAX_8BIT;
  49              		.loc 1 639 0
  50 0016 4FF48073 		mov	r3, #256
 640:.\Generated_Source\PSoC5/ADC.c ****             #if(!((ADC_DEFAULT_RANGE == ADC__VSS_TO_VREF) || \
 641:.\Generated_Source\PSoC5/ADC.c ****                  (ADC_DEFAULT_RANGE == ADC__VSSA_TO_VDDA) || \
 642:.\Generated_Source\PSoC5/ADC.c ****                  (ADC_DEFAULT_RANGE == ADC__VSSA_TO_VDAC)) )
 643:.\Generated_Source\PSoC5/ADC.c ****                 diff_zero = ADC_SAR_DIFF_SHIFT >> 4u;
 644:.\Generated_Source\PSoC5/ADC.c ****             #endif /* End ADC_DEFAULT_RANGE */
 645:.\Generated_Source\PSoC5/ADC.c ****             break;
  51              		.loc 1 645 0
  52 001a 06E0     		b	.L3
  53              	.LVL2:
  54              	.L8:
 646:.\Generated_Source\PSoC5/ADC.c ****         default: /* Halt CPU in debug mode if resolution is out of valid range */
 647:.\Generated_Source\PSoC5/ADC.c ****             counts = 0;
 648:.\Generated_Source\PSoC5/ADC.c ****             #if(!((ADC_DEFAULT_RANGE == ADC__VSS_TO_VREF) || \
 649:.\Generated_Source\PSoC5/ADC.c ****                  (ADC_DEFAULT_RANGE == ADC__VSSA_TO_VDDA) || \
 650:.\Generated_Source\PSoC5/ADC.c ****                  (ADC_DEFAULT_RANGE == ADC__VSSA_TO_VDAC)) )
 651:.\Generated_Source\PSoC5/ADC.c ****                 diff_zero = 0u;
 652:.\Generated_Source\PSoC5/ADC.c ****             #endif /* End ADC_DEFAULT_RANGE */
 653:.\Generated_Source\PSoC5/ADC.c ****             CYASSERT(0u != 0u);
  55              		.loc 1 653 0
  56 001c 0020     		movs	r0, #0
  57              	.LVL3:
  58 001e FFF7FEFF 		bl	CyHalt
  59              	.LVL4:
 647:.\Generated_Source\PSoC5/ADC.c ****             counts = 0;
  60              		.loc 1 647 0
  61 0022 0023     		movs	r3, #0
  62 0024 01E0     		b	.L3
  63              	.LVL5:
  64              	.L7:
 631:.\Generated_Source\PSoC5/ADC.c ****             counts = (int32)ADC_SAR_WRK_MAX_10BIT;
  65              		.loc 1 631 0
  66 0026 4FF48063 		mov	r3, #1024
  67              	.LVL6:
  68              	.L3:
 654:.\Generated_Source\PSoC5/ADC.c ****             break;
 655:.\Generated_Source\PSoC5/ADC.c ****     }
 656:.\Generated_Source\PSoC5/ADC.c ****     ADC_countsPerVolt = 0; /* Clear obsolete variable */
  69              		.loc 1 656 0
  70 002a 0021     		movs	r1, #0
  71 002c 084A     		ldr	r2, .L9
  72 002e 1180     		strh	r1, [r2]	@ movhi
 657:.\Generated_Source\PSoC5/ADC.c ****     /* Calculate gain in counts per 10 volts with rounding */
 658:.\Generated_Source\PSoC5/ADC.c ****     ADC_countsPer10Volt = (((counts * ADC_10MV_COUNTS) +
  73              		.loc 1 658 0
  74 0030 42F21072 		movw	r2, #10000
  75 0034 02FB03F3 		mul	r3, r2, r3
  76              	.LVL7:
 659:.\Generated_Source\PSoC5/ADC.c ****                         ADC_DEFAULT_REF_VOLTAGE_MV) / (ADC_DEFAULT_REF_VOLTAGE_MV * 2));
  77              		.loc 1 659 0
  78 0038 13F58063 		adds	r3, r3, #1024
  79 003c 01D5     		bpl	.L6
  80 003e 03F2FF73 		addw	r3, r3, #2047
ARM GAS  C:\Users\Digi-Key\AppData\Local\Temp\ccWaxdFd.s 			page 14


  81              	.L6:
  82 0042 DB12     		asrs	r3, r3, #11
 658:.\Generated_Source\PSoC5/ADC.c ****     ADC_countsPer10Volt = (((counts * ADC_10MV_COUNTS) +
  83              		.loc 1 658 0
  84 0044 034A     		ldr	r2, .L9+4
  85 0046 1360     		str	r3, [r2]
 660:.\Generated_Source\PSoC5/ADC.c **** 
 661:.\Generated_Source\PSoC5/ADC.c ****     #if( (ADC_DEFAULT_RANGE == ADC__VSS_TO_VREF) || \
 662:.\Generated_Source\PSoC5/ADC.c ****          (ADC_DEFAULT_RANGE == ADC__VSSA_TO_VDDA) || \
 663:.\Generated_Source\PSoC5/ADC.c ****          (ADC_DEFAULT_RANGE == ADC__VSSA_TO_VDAC) )
 664:.\Generated_Source\PSoC5/ADC.c ****         ADC_shift = 0;
  86              		.loc 1 664 0
  87 0048 0022     		movs	r2, #0
  88 004a 034B     		ldr	r3, .L9+8
  89 004c 1A80     		strh	r2, [r3]	@ movhi
  90 004e 08BD     		pop	{r3, pc}
  91              	.L10:
  92              		.align	2
  93              	.L9:
  94 0050 00000000 		.word	ADC_countsPerVolt
  95 0054 00000000 		.word	ADC_countsPer10Volt
  96 0058 00000000 		.word	ADC_shift
  97              		.cfi_endproc
  98              	.LFE12:
  99              		.size	ADC_CalcGain, .-ADC_CalcGain
 100              		.section	.text.ADC_Enable,"ax",%progbits
 101              		.align	2
 102              		.global	ADC_Enable
 103              		.thumb
 104              		.thumb_func
 105              		.type	ADC_Enable, %function
 106              	ADC_Enable:
 107              	.LFB2:
 144:.\Generated_Source\PSoC5/ADC.c **** {
 108              		.loc 1 144 0
 109              		.cfi_startproc
 110              		@ args = 0, pretend = 0, frame = 0
 111              		@ frame_needed = 0, uses_anonymous_args = 0
 112 0000 10B5     		push	{r4, lr}
 113              		.cfi_def_cfa_offset 8
 114              		.cfi_offset 4, -8
 115              		.cfi_offset 14, -4
 147:.\Generated_Source\PSoC5/ADC.c ****     enableInterrupts = CyEnterCriticalSection();
 116              		.loc 1 147 0
 117 0002 FFF7FEFF 		bl	CyEnterCriticalSection
 118              	.LVL8:
 119 0006 0446     		mov	r4, r0
 120              	.LVL9:
 150:.\Generated_Source\PSoC5/ADC.c ****     ADC_PWRMGR_SAR_REG |= ADC_ACT_PWR_SAR_EN;
 121              		.loc 1 150 0
 122 0008 1F4B     		ldr	r3, .L12
 123 000a 1A78     		ldrb	r2, [r3]	@ zero_extendqisi2
 124 000c 42F00202 		orr	r2, r2, #2
 125 0010 1A70     		strb	r2, [r3]
 153:.\Generated_Source\PSoC5/ADC.c ****     ADC_STBY_PWRMGR_SAR_REG |= ADC_STBY_PWR_SAR_EN;
 126              		.loc 1 153 0
 127 0012 1033     		adds	r3, r3, #16
ARM GAS  C:\Users\Digi-Key\AppData\Local\Temp\ccWaxdFd.s 			page 15


 128 0014 1A78     		ldrb	r2, [r3]	@ zero_extendqisi2
 129 0016 42F00202 		orr	r2, r2, #2
 130 001a 1A70     		strb	r2, [r3]
 157:.\Generated_Source\PSoC5/ADC.c ****         ADC_PWRMGR_CLK_REG |= ADC_ACT_PWR_CLK_EN;
 131              		.loc 1 157 0
 132 001c 193B     		subs	r3, r3, #25
 133 001e 1A78     		ldrb	r2, [r3]	@ zero_extendqisi2
 134 0020 42F00102 		orr	r2, r2, #1
 135 0024 1A70     		strb	r2, [r3]
 158:.\Generated_Source\PSoC5/ADC.c ****         ADC_STBY_PWRMGR_CLK_REG |= ADC_STBY_PWR_CLK_EN;
 136              		.loc 1 158 0
 137 0026 1033     		adds	r3, r3, #16
 138 0028 1A78     		ldrb	r2, [r3]	@ zero_extendqisi2
 139 002a 42F00102 		orr	r2, r2, #1
 140 002e 1A70     		strb	r2, [r3]
 162:.\Generated_Source\PSoC5/ADC.c ****     tmpReg = ADC_SAR_CSR3_REG;
 141              		.loc 1 162 0
 142 0030 03F5AA53 		add	r3, r3, #5440
 143 0034 1933     		adds	r3, r3, #25
 144 0036 1A78     		ldrb	r2, [r3]	@ zero_extendqisi2
 145              	.LVL10:
 169:.\Generated_Source\PSoC5/ADC.c ****         tmpReg |= ADC_SAR_EN_BUF_VREF_EN;
 146              		.loc 1 169 0
 147 0038 42F00302 		orr	r2, r2, #3
 148              	.LVL11:
 171:.\Generated_Source\PSoC5/ADC.c ****     ADC_SAR_CSR3_REG = tmpReg;
 149              		.loc 1 171 0
 150 003c 1A70     		strb	r2, [r3]
 184:.\Generated_Source\PSoC5/ADC.c ****             ADC_SAR_CSR6_REG = ADC_INT_BYPASS_EXT_VREF; /* S2 */
 151              		.loc 1 184 0
 152 003e 0422     		movs	r2, #4
 153              	.LVL12:
 154 0040 0333     		adds	r3, r3, #3
 155 0042 1A70     		strb	r2, [r3]
 190:.\Generated_Source\PSoC5/ADC.c ****         ADC_SAR_CSR5_REG &= (uint8)~ADC_SAR_DLY_INC;
 156              		.loc 1 190 0
 157 0044 013B     		subs	r3, r3, #1
 158 0046 1A78     		ldrb	r2, [r3]	@ zero_extendqisi2
 159 0048 02F0BF02 		and	r2, r2, #191
 160 004c 1A70     		strb	r2, [r3]
 200:.\Generated_Source\PSoC5/ADC.c ****         ADC_SAR_CSR5_REG |= ADC_SAR_SEL_CSEL_DFT_CHAR;
 161              		.loc 1 200 0
 162 004e 1A78     		ldrb	r2, [r3]	@ zero_extendqisi2
 163 0050 42F00302 		orr	r2, r2, #3
 164 0054 1A70     		strb	r2, [r3]
 206:.\Generated_Source\PSoC5/ADC.c ****     ADC_SAR_CSR0_REG = (uint8)((uint8)ADC_DEFAULT_POWER << ADC_SAR_POWER_SHIFT)
 165              		.loc 1 206 0
 166 0056 0822     		movs	r2, #8
 167 0058 053B     		subs	r3, r3, #5
 168 005a 1A70     		strb	r2, [r3]
 218:.\Generated_Source\PSoC5/ADC.c ****     ADC_SAR_TR0_REG = ADC_SAR_CAP_TRIM_2;
 169              		.loc 1 218 0
 170 005c 0222     		movs	r2, #2
 171 005e A3F59753 		sub	r3, r3, #4832
 172 0062 123B     		subs	r3, r3, #18
 173 0064 1A70     		strb	r2, [r3]
 221:.\Generated_Source\PSoC5/ADC.c ****     ADC_SAR_CLK_REG |= ADC_SAR_MX_CLK_EN;
ARM GAS  C:\Users\Digi-Key\AppData\Local\Temp\ccWaxdFd.s 			page 16


 174              		.loc 1 221 0
 175 0066 03F5A853 		add	r3, r3, #5376
 176 006a 1933     		adds	r3, r3, #25
 177 006c 1A78     		ldrb	r2, [r3]	@ zero_extendqisi2
 178 006e 42F00802 		orr	r2, r2, #8
 179 0072 1A70     		strb	r2, [r3]
 223:.\Generated_Source\PSoC5/ADC.c ****     CyDelayUs(10u); /* The block is ready to use 10 us after the enable signal is set high. */
 180              		.loc 1 223 0
 181 0074 0A20     		movs	r0, #10
 182              	.LVL13:
 183 0076 FFF7FEFF 		bl	CyDelayUs
 184              	.LVL14:
 227:.\Generated_Source\PSoC5/ADC.c ****         CyIntClearPending(ADC_INTC_NUMBER);
 185              		.loc 1 227 0
 186 007a 0122     		movs	r2, #1
 187 007c 034B     		ldr	r3, .L12+4
 188 007e 1A60     		str	r2, [r3]
 230:.\Generated_Source\PSoC5/ADC.c ****     CyExitCriticalSection(enableInterrupts);
 189              		.loc 1 230 0
 190 0080 2046     		mov	r0, r4
 191 0082 FFF7FEFF 		bl	CyExitCriticalSection
 192              	.LVL15:
 193 0086 10BD     		pop	{r4, pc}
 194              	.LVL16:
 195              	.L13:
 196              		.align	2
 197              	.L12:
 198 0088 AB430040 		.word	1073759147
 199 008c 80E200E0 		.word	-536812928
 200              		.cfi_endproc
 201              	.LFE2:
 202              		.size	ADC_Enable, .-ADC_Enable
 203              		.section	.text.ADC_Stop,"ax",%progbits
 204              		.align	2
 205              		.global	ADC_Stop
 206              		.thumb
 207              		.thumb_func
 208              		.type	ADC_Stop, %function
 209              	ADC_Stop:
 210              	.LFB3:
 249:.\Generated_Source\PSoC5/ADC.c **** {
 211              		.loc 1 249 0
 212              		.cfi_startproc
 213              		@ args = 0, pretend = 0, frame = 0
 214              		@ frame_needed = 0, uses_anonymous_args = 0
 215 0000 08B5     		push	{r3, lr}
 216              		.cfi_def_cfa_offset 8
 217              		.cfi_offset 3, -8
 218              		.cfi_offset 14, -4
 251:.\Generated_Source\PSoC5/ADC.c ****     enableInterrupts = CyEnterCriticalSection();
 219              		.loc 1 251 0
 220 0002 FFF7FEFF 		bl	CyEnterCriticalSection
 221              	.LVL17:
 254:.\Generated_Source\PSoC5/ADC.c ****     ADC_SAR_CSR0_REG &= (uint8)~ADC_SAR_SOF_START_CONV;
 222              		.loc 1 254 0
 223 0006 0F4B     		ldr	r3, .L15
 224 0008 1A78     		ldrb	r2, [r3]	@ zero_extendqisi2
ARM GAS  C:\Users\Digi-Key\AppData\Local\Temp\ccWaxdFd.s 			page 17


 225 000a 02F0FE02 		and	r2, r2, #254
 226 000e 1A70     		strb	r2, [r3]
 256:.\Generated_Source\PSoC5/ADC.c ****     ADC_PWRMGR_SAR_REG &= (uint8)~ADC_ACT_PWR_SAR_EN;
 227              		.loc 1 256 0
 228 0010 A3F5AA53 		sub	r3, r3, #5440
 229 0014 1D3B     		subs	r3, r3, #29
 230 0016 1A78     		ldrb	r2, [r3]	@ zero_extendqisi2
 231 0018 02F0FD02 		and	r2, r2, #253
 232 001c 1A70     		strb	r2, [r3]
 258:.\Generated_Source\PSoC5/ADC.c ****     ADC_STBY_PWRMGR_SAR_REG &= (uint8)~ADC_STBY_PWR_SAR_EN;
 233              		.loc 1 258 0
 234 001e 1033     		adds	r3, r3, #16
 235 0020 1A78     		ldrb	r2, [r3]	@ zero_extendqisi2
 236 0022 02F0FD02 		and	r2, r2, #253
 237 0026 1A70     		strb	r2, [r3]
 262:.\Generated_Source\PSoC5/ADC.c ****         ADC_PWRMGR_CLK_REG &= (uint8)~ADC_ACT_PWR_CLK_EN;
 238              		.loc 1 262 0
 239 0028 193B     		subs	r3, r3, #25
 240 002a 1A78     		ldrb	r2, [r3]	@ zero_extendqisi2
 241 002c 02F0FE02 		and	r2, r2, #254
 242 0030 1A70     		strb	r2, [r3]
 263:.\Generated_Source\PSoC5/ADC.c ****         ADC_STBY_PWRMGR_CLK_REG &= (uint8)~ADC_STBY_PWR_CLK_EN;
 243              		.loc 1 263 0
 244 0032 1033     		adds	r3, r3, #16
 245 0034 1A78     		ldrb	r2, [r3]	@ zero_extendqisi2
 246 0036 02F0FE02 		and	r2, r2, #254
 247 003a 1A70     		strb	r2, [r3]
 266:.\Generated_Source\PSoC5/ADC.c ****     CyExitCriticalSection(enableInterrupts);
 248              		.loc 1 266 0
 249 003c FFF7FEFF 		bl	CyExitCriticalSection
 250              	.LVL18:
 251 0040 08BD     		pop	{r3, pc}
 252              	.L16:
 253 0042 00BF     		.align	2
 254              	.L15:
 255 0044 08590040 		.word	1073764616
 256              		.cfi_endproc
 257              	.LFE3:
 258              		.size	ADC_Stop, .-ADC_Stop
 259              		.section	.text.ADC_SetPower,"ax",%progbits
 260              		.align	2
 261              		.global	ADC_SetPower
 262              		.thumb
 263              		.thumb_func
 264              		.type	ADC_SetPower, %function
 265              	ADC_SetPower:
 266              	.LFB4:
 291:.\Generated_Source\PSoC5/ADC.c **** {
 267              		.loc 1 291 0
 268              		.cfi_startproc
 269              		@ args = 0, pretend = 0, frame = 0
 270              		@ frame_needed = 0, uses_anonymous_args = 0
 271              		@ link register save eliminated.
 272              	.LVL19:
 295:.\Generated_Source\PSoC5/ADC.c ****     power &= ADC_SAR_API_POWER_MASK;
 273              		.loc 1 295 0
 274 0000 00F00300 		and	r0, r0, #3
ARM GAS  C:\Users\Digi-Key\AppData\Local\Temp\ccWaxdFd.s 			page 18


 275              	.LVL20:
 298:.\Generated_Source\PSoC5/ADC.c ****     tmpReg = ADC_SAR_CSR0_REG & (uint8)~ADC_SAR_POWER_MASK;
 276              		.loc 1 298 0
 277 0004 034B     		ldr	r3, .L18
 278 0006 1A78     		ldrb	r2, [r3]	@ zero_extendqisi2
 279 0008 02F03F02 		and	r2, r2, #63
 280              	.LVL21:
 299:.\Generated_Source\PSoC5/ADC.c ****     tmpReg |= (uint8)(power << ADC_SAR_POWER_SHIFT);
 281              		.loc 1 299 0
 282 000c 42EA8010 		orr	r0, r2, r0, lsl #6
 283              	.LVL22:
 300:.\Generated_Source\PSoC5/ADC.c ****     ADC_SAR_CSR0_REG = tmpReg;
 284              		.loc 1 300 0
 285 0010 1870     		strb	r0, [r3]
 286 0012 7047     		bx	lr
 287              	.L19:
 288              		.align	2
 289              	.L18:
 290 0014 08590040 		.word	1073764616
 291              		.cfi_endproc
 292              	.LFE4:
 293              		.size	ADC_SetPower, .-ADC_SetPower
 294              		.section	.text.ADC_SetResolution,"ax",%progbits
 295              		.align	2
 296              		.global	ADC_SetResolution
 297              		.thumb
 298              		.thumb_func
 299              		.type	ADC_SetResolution, %function
 300              	ADC_SetResolution:
 301              	.LFB5:
 341:.\Generated_Source\PSoC5/ADC.c **** {
 302              		.loc 1 341 0
 303              		.cfi_startproc
 304              		@ args = 0, pretend = 0, frame = 0
 305              		@ frame_needed = 0, uses_anonymous_args = 0
 306              	.LVL23:
 307 0000 10B5     		push	{r4, lr}
 308              		.cfi_def_cfa_offset 8
 309              		.cfi_offset 4, -8
 310              		.cfi_offset 14, -4
 311 0002 0446     		mov	r4, r0
 345:.\Generated_Source\PSoC5/ADC.c ****     switch (resolution)
 312              		.loc 1 345 0
 313 0004 0A28     		cmp	r0, #10
 314 0006 0DD0     		beq	.L25
 315 0008 0C28     		cmp	r0, #12
 316 000a 02D0     		beq	.L23
 317 000c 0828     		cmp	r0, #8
 318 000e 04D1     		bne	.L26
 319 0010 01E0     		b	.L24
 320              	.L23:
 348:.\Generated_Source\PSoC5/ADC.c ****             tmpReg = ADC_SAR_RESOLUTION_12BIT | ADC_SAR_SAMPLE_WIDTH;
 321              		.loc 1 348 0
 322 0012 C422     		movs	r2, #196
 323 0014 07E0     		b	.L22
 324              	.L24:
 325              	.LVL24:
ARM GAS  C:\Users\Digi-Key\AppData\Local\Temp\ccWaxdFd.s 			page 19


 354:.\Generated_Source\PSoC5/ADC.c ****             tmpReg = ADC_SAR_RESOLUTION_8BIT | ADC_SAR_SAMPLE_WIDTH;
 326              		.loc 1 354 0
 327 0016 4422     		movs	r2, #68
 355:.\Generated_Source\PSoC5/ADC.c ****             break;
 328              		.loc 1 355 0
 329 0018 05E0     		b	.L22
 330              	.LVL25:
 331              	.L26:
 359:.\Generated_Source\PSoC5/ADC.c ****             CYASSERT(0u != 0u);
 332              		.loc 1 359 0
 333 001a 0020     		movs	r0, #0
 334              	.LVL26:
 335 001c FFF7FEFF 		bl	CyHalt
 336              	.LVL27:
 357:.\Generated_Source\PSoC5/ADC.c ****             tmpReg = ADC_SAR_RESOLUTION_12BIT | ADC_SAR_SAMPLE_WIDTH;
 337              		.loc 1 357 0
 338 0020 C422     		movs	r2, #196
 339 0022 00E0     		b	.L22
 340              	.LVL28:
 341              	.L25:
 351:.\Generated_Source\PSoC5/ADC.c ****             tmpReg = ADC_SAR_RESOLUTION_10BIT | ADC_SAR_SAMPLE_WIDTH;
 342              		.loc 1 351 0
 343 0024 8422     		movs	r2, #132
 344              	.LVL29:
 345              	.L22:
 362:.\Generated_Source\PSoC5/ADC.c ****     ADC_SAR_CSR2_REG = tmpReg;
 346              		.loc 1 362 0
 347 0026 034B     		ldr	r3, .L27
 348 0028 1A70     		strb	r2, [r3]
 365:.\Generated_Source\PSoC5/ADC.c ****     ADC_CalcGain(resolution);
 349              		.loc 1 365 0
 350 002a 2046     		mov	r0, r4
 351 002c FFF7FEFF 		bl	ADC_CalcGain
 352              	.LVL30:
 353 0030 10BD     		pop	{r4, pc}
 354              	.L28:
 355 0032 00BF     		.align	2
 356              	.L27:
 357 0034 0A590040 		.word	1073764618
 358              		.cfi_endproc
 359              	.LFE5:
 360              		.size	ADC_SetResolution, .-ADC_SetResolution
 361              		.section	.text.ADC_Init,"ax",%progbits
 362              		.align	2
 363              		.global	ADC_Init
 364              		.thumb
 365              		.thumb_func
 366              		.type	ADC_Init, %function
 367              	ADC_Init:
 368              	.LFB1:
 107:.\Generated_Source\PSoC5/ADC.c **** {
 369              		.loc 1 107 0
 370              		.cfi_startproc
 371              		@ args = 0, pretend = 0, frame = 0
 372              		@ frame_needed = 0, uses_anonymous_args = 0
 373 0000 08B5     		push	{r3, lr}
 374              		.cfi_def_cfa_offset 8
ARM GAS  C:\Users\Digi-Key\AppData\Local\Temp\ccWaxdFd.s 			page 20


 375              		.cfi_offset 3, -8
 376              		.cfi_offset 14, -4
 111:.\Generated_Source\PSoC5/ADC.c ****         ADC_theACLK_SetMode(CYCLK_DUTY);
 377              		.loc 1 111 0
 378 0002 1020     		movs	r0, #16
 379 0004 FFF7FEFF 		bl	ADC_theACLK_SetModeRegister
 380              	.LVL31:
 116:.\Generated_Source\PSoC5/ADC.c ****         CyIntSetPriority(ADC_INTC_NUMBER, ADC_INTC_PRIOR_NUMBER);
 381              		.loc 1 116 0
 382 0008 0020     		movs	r0, #0
 383 000a 0721     		movs	r1, #7
 384 000c FFF7FEFF 		bl	CyIntSetPriority
 385              	.LVL32:
 117:.\Generated_Source\PSoC5/ADC.c ****         (void)CyIntSetVector(ADC_INTC_NUMBER, &ADC_ISR);
 386              		.loc 1 117 0
 387 0010 0020     		movs	r0, #0
 388 0012 0749     		ldr	r1, .L30
 389 0014 FFF7FEFF 		bl	CyIntSetVector
 390              	.LVL33:
 121:.\Generated_Source\PSoC5/ADC.c ****     ADC_SAR_CSR1_REG |= ADC_SAR_IRQ_MASK_EN | ADC_SAR_IRQ_MODE_EDGE;
 391              		.loc 1 121 0
 392 0018 064B     		ldr	r3, .L30+4
 393 001a 1A78     		ldrb	r2, [r3]	@ zero_extendqisi2
 394 001c 42F00602 		orr	r2, r2, #6
 395 0020 1A70     		strb	r2, [r3]
 124:.\Generated_Source\PSoC5/ADC.c ****     ADC_SetResolution(ADC_DEFAULT_RESOLUTION);
 396              		.loc 1 124 0
 397 0022 0C20     		movs	r0, #12
 398 0024 FFF7FEFF 		bl	ADC_SetResolution
 399              	.LVL34:
 125:.\Generated_Source\PSoC5/ADC.c ****     ADC_offset = 0;
 400              		.loc 1 125 0
 401 0028 0022     		movs	r2, #0
 402 002a 034B     		ldr	r3, .L30+8
 403 002c 1A80     		strh	r2, [r3]	@ movhi
 404 002e 08BD     		pop	{r3, pc}
 405              	.L31:
 406              		.align	2
 407              	.L30:
 408 0030 00000000 		.word	ADC_ISR
 409 0034 09590040 		.word	1073764617
 410 0038 00000000 		.word	ADC_offset
 411              		.cfi_endproc
 412              	.LFE1:
 413              		.size	ADC_Init, .-ADC_Init
 414              		.section	.text.ADC_Start,"ax",%progbits
 415              		.align	2
 416              		.global	ADC_Start
 417              		.thumb
 418              		.thumb_func
 419              		.type	ADC_Start, %function
 420              	ADC_Start:
 421              	.LFB0:
  75:.\Generated_Source\PSoC5/ADC.c **** {
 422              		.loc 1 75 0
 423              		.cfi_startproc
 424              		@ args = 0, pretend = 0, frame = 0
ARM GAS  C:\Users\Digi-Key\AppData\Local\Temp\ccWaxdFd.s 			page 21


 425              		@ frame_needed = 0, uses_anonymous_args = 0
 426 0000 08B5     		push	{r3, lr}
 427              		.cfi_def_cfa_offset 8
 428              		.cfi_offset 3, -8
 429              		.cfi_offset 14, -4
  78:.\Generated_Source\PSoC5/ADC.c ****     if(ADC_initVar == 0u)
 430              		.loc 1 78 0
 431 0002 054B     		ldr	r3, .L34
 432 0004 1B78     		ldrb	r3, [r3]	@ zero_extendqisi2
 433 0006 23B9     		cbnz	r3, .L33
  80:.\Generated_Source\PSoC5/ADC.c ****         ADC_Init();
 434              		.loc 1 80 0
 435 0008 FFF7FEFF 		bl	ADC_Init
 436              	.LVL35:
  81:.\Generated_Source\PSoC5/ADC.c ****         ADC_initVar = 1u;
 437              		.loc 1 81 0
 438 000c 0122     		movs	r2, #1
 439 000e 024B     		ldr	r3, .L34
 440 0010 1A70     		strb	r2, [r3]
 441              	.L33:
  83:.\Generated_Source\PSoC5/ADC.c ****     ADC_Enable();
 442              		.loc 1 83 0
 443 0012 FFF7FEFF 		bl	ADC_Enable
 444              	.LVL36:
 445 0016 08BD     		pop	{r3, pc}
 446              	.L35:
 447              		.align	2
 448              	.L34:
 449 0018 00000000 		.word	.LANCHOR0
 450              		.cfi_endproc
 451              	.LFE0:
 452              		.size	ADC_Start, .-ADC_Start
 453              		.section	.text.ADC_StartConvert,"ax",%progbits
 454              		.align	2
 455              		.global	ADC_StartConvert
 456              		.thumb
 457              		.thumb_func
 458              		.type	ADC_StartConvert, %function
 459              	ADC_StartConvert:
 460              	.LFB6:
 402:.\Generated_Source\PSoC5/ADC.c ****     {
 461              		.loc 1 402 0
 462              		.cfi_startproc
 463              		@ args = 0, pretend = 0, frame = 0
 464              		@ frame_needed = 0, uses_anonymous_args = 0
 465              		@ link register save eliminated.
 408:.\Generated_Source\PSoC5/ADC.c ****         ADC_SAR_CSR0_REG |= ADC_SAR_SOF_START_CONV;
 466              		.loc 1 408 0
 467 0000 024B     		ldr	r3, .L37
 468 0002 1A78     		ldrb	r2, [r3]	@ zero_extendqisi2
 469 0004 42F00102 		orr	r2, r2, #1
 470 0008 1A70     		strb	r2, [r3]
 471 000a 7047     		bx	lr
 472              	.L38:
 473              		.align	2
 474              	.L37:
 475 000c 08590040 		.word	1073764616
ARM GAS  C:\Users\Digi-Key\AppData\Local\Temp\ccWaxdFd.s 			page 22


 476              		.cfi_endproc
 477              	.LFE6:
 478              		.size	ADC_StartConvert, .-ADC_StartConvert
 479              		.section	.text.ADC_StopConvert,"ax",%progbits
 480              		.align	2
 481              		.global	ADC_StopConvert
 482              		.thumb
 483              		.thumb_func
 484              		.type	ADC_StopConvert, %function
 485              	ADC_StopConvert:
 486              	.LFB7:
 436:.\Generated_Source\PSoC5/ADC.c ****     {
 487              		.loc 1 436 0
 488              		.cfi_startproc
 489              		@ args = 0, pretend = 0, frame = 0
 490              		@ frame_needed = 0, uses_anonymous_args = 0
 491              		@ link register save eliminated.
 438:.\Generated_Source\PSoC5/ADC.c ****         ADC_SAR_CSR0_REG &= (uint8)~ADC_SAR_SOF_START_CONV;
 492              		.loc 1 438 0
 493 0000 024B     		ldr	r3, .L40
 494 0002 1A78     		ldrb	r2, [r3]	@ zero_extendqisi2
 495 0004 02F0FE02 		and	r2, r2, #254
 496 0008 1A70     		strb	r2, [r3]
 497 000a 7047     		bx	lr
 498              	.L41:
 499              		.align	2
 500              	.L40:
 501 000c 08590040 		.word	1073764616
 502              		.cfi_endproc
 503              	.LFE7:
 504              		.size	ADC_StopConvert, .-ADC_StopConvert
 505              		.section	.text.ADC_IsEndConversion,"ax",%progbits
 506              		.align	2
 507              		.global	ADC_IsEndConversion
 508              		.thumb
 509              		.thumb_func
 510              		.type	ADC_IsEndConversion, %function
 511              	ADC_IsEndConversion:
 512              	.LFB8:
 476:.\Generated_Source\PSoC5/ADC.c **** {
 513              		.loc 1 476 0
 514              		.cfi_startproc
 515              		@ args = 0, pretend = 0, frame = 0
 516              		@ frame_needed = 0, uses_anonymous_args = 0
 517              	.LVL37:
 518 0000 10B5     		push	{r4, lr}
 519              		.cfi_def_cfa_offset 8
 520              		.cfi_offset 4, -8
 521              		.cfi_offset 14, -4
 481:.\Generated_Source\PSoC5/ADC.c ****         status = ADC_SAR_CSR1_REG & ADC_SAR_EOF_1;
 522              		.loc 1 481 0
 523 0002 074A     		ldr	r2, .L47
 524              	.L44:
 481:.\Generated_Source\PSoC5/ADC.c ****         status = ADC_SAR_CSR1_REG & ADC_SAR_EOF_1;
 525              		.loc 1 481 0 is_stmt 0 discriminator 1
 526 0004 1378     		ldrb	r3, [r2]	@ zero_extendqisi2
 527              	.LVL38:
ARM GAS  C:\Users\Digi-Key\AppData\Local\Temp\ccWaxdFd.s 			page 23


 482:.\Generated_Source\PSoC5/ADC.c ****     } while ((status != ADC_SAR_EOF_1) && (retMode == ADC_WAIT_FOR_RESULT));
 528              		.loc 1 482 0 is_stmt 1 discriminator 1
 529 0006 13F00104 		ands	r4, r3, #1
 530 000a 01D1     		bne	.L43
 531 000c 0028     		cmp	r0, #0
 532 000e F9D0     		beq	.L44
 533              	.L43:
 484:.\Generated_Source\PSoC5/ADC.c ****     if(status == ADC_SAR_EOF_1)
 534              		.loc 1 484 0
 535 0010 24B1     		cbz	r4, .L45
 487:.\Generated_Source\PSoC5/ADC.c ****         CyDelayUs(1u);
 536              		.loc 1 487 0
 537 0012 0120     		movs	r0, #1
 538              	.LVL39:
 539 0014 FFF7FEFF 		bl	CyDelayUs
 540              	.LVL40:
 489:.\Generated_Source\PSoC5/ADC.c ****         CY_GET_REG8(ADC_SAR_CSR1_PTR);
 541              		.loc 1 489 0
 542 0018 014B     		ldr	r3, .L47
 543 001a 1B78     		ldrb	r3, [r3]	@ zero_extendqisi2
 544              	.L45:
 493:.\Generated_Source\PSoC5/ADC.c **** }
 545              		.loc 1 493 0
 546 001c 2046     		mov	r0, r4
 547 001e 10BD     		pop	{r4, pc}
 548              	.L48:
 549              		.align	2
 550              	.L47:
 551 0020 09590040 		.word	1073764617
 552              		.cfi_endproc
 553              	.LFE8:
 554              		.size	ADC_IsEndConversion, .-ADC_IsEndConversion
 555              		.section	.text.ADC_GetResult8,"ax",%progbits
 556              		.align	2
 557              		.global	ADC_GetResult8
 558              		.thumb
 559              		.thumb_func
 560              		.type	ADC_GetResult8, %function
 561              	ADC_GetResult8:
 562              	.LFB9:
 521:.\Generated_Source\PSoC5/ADC.c **** {
 563              		.loc 1 521 0
 564              		.cfi_startproc
 565              		@ args = 0, pretend = 0, frame = 0
 566              		@ frame_needed = 0, uses_anonymous_args = 0
 567              		@ link register save eliminated.
 522:.\Generated_Source\PSoC5/ADC.c ****     return( (int8)ADC_SAR_WRK0_REG - (int8)ADC_shift);
 568              		.loc 1 522 0
 569 0000 034B     		ldr	r3, .L50
 570 0002 1878     		ldrb	r0, [r3]	@ zero_extendqisi2
 571 0004 034B     		ldr	r3, .L50+4
 572 0006 1B88     		ldrh	r3, [r3]
 573 0008 C01A     		subs	r0, r0, r3
 523:.\Generated_Source\PSoC5/ADC.c **** }
 574              		.loc 1 523 0
 575 000a 40B2     		sxtb	r0, r0
 576 000c 7047     		bx	lr
ARM GAS  C:\Users\Digi-Key\AppData\Local\Temp\ccWaxdFd.s 			page 24


 577              	.L51:
 578 000e 00BF     		.align	2
 579              	.L50:
 580 0010 A25B0040 		.word	1073765282
 581 0014 00000000 		.word	ADC_shift
 582              		.cfi_endproc
 583              	.LFE9:
 584              		.size	ADC_GetResult8, .-ADC_GetResult8
 585              		.section	.text.ADC_GetResult16,"ax",%progbits
 586              		.align	2
 587              		.global	ADC_GetResult16
 588              		.thumb
 589              		.thumb_func
 590              		.type	ADC_GetResult16, %function
 591              	ADC_GetResult16:
 592              	.LFB10:
 551:.\Generated_Source\PSoC5/ADC.c **** {
 593              		.loc 1 551 0
 594              		.cfi_startproc
 595              		@ args = 0, pretend = 0, frame = 0
 596              		@ frame_needed = 0, uses_anonymous_args = 0
 597              		@ link register save eliminated.
 554:.\Generated_Source\PSoC5/ADC.c ****     res = CY_GET_REG16(ADC_SAR_WRK_PTR);
 598              		.loc 1 554 0
 599 0000 034B     		ldr	r3, .L53
 600 0002 1888     		ldrh	r0, [r3]
 601              	.LVL41:
 556:.\Generated_Source\PSoC5/ADC.c ****     return( (int16)res - ADC_shift );
 602              		.loc 1 556 0
 603 0004 034B     		ldr	r3, .L53+4
 604 0006 1B88     		ldrh	r3, [r3]
 605 0008 C01A     		subs	r0, r0, r3
 606              	.LVL42:
 557:.\Generated_Source\PSoC5/ADC.c **** }
 607              		.loc 1 557 0
 608 000a 00B2     		sxth	r0, r0
 609 000c 7047     		bx	lr
 610              	.L54:
 611 000e 00BF     		.align	2
 612              	.L53:
 613 0010 A25B0040 		.word	1073765282
 614 0014 00000000 		.word	ADC_shift
 615              		.cfi_endproc
 616              	.LFE10:
 617              		.size	ADC_GetResult16, .-ADC_GetResult16
 618              		.section	.text.ADC_SetOffset,"ax",%progbits
 619              		.align	2
 620              		.global	ADC_SetOffset
 621              		.thumb
 622              		.thumb_func
 623              		.type	ADC_SetOffset, %function
 624              	ADC_SetOffset:
 625              	.LFB11:
 586:.\Generated_Source\PSoC5/ADC.c **** {
 626              		.loc 1 586 0
 627              		.cfi_startproc
 628              		@ args = 0, pretend = 0, frame = 0
ARM GAS  C:\Users\Digi-Key\AppData\Local\Temp\ccWaxdFd.s 			page 25


 629              		@ frame_needed = 0, uses_anonymous_args = 0
 630              		@ link register save eliminated.
 631              	.LVL43:
 587:.\Generated_Source\PSoC5/ADC.c ****     ADC_offset = offset;
 632              		.loc 1 587 0
 633 0000 014B     		ldr	r3, .L56
 634 0002 1880     		strh	r0, [r3]	@ movhi
 635 0004 7047     		bx	lr
 636              	.L57:
 637 0006 00BF     		.align	2
 638              	.L56:
 639 0008 00000000 		.word	ADC_offset
 640              		.cfi_endproc
 641              	.LFE11:
 642              		.size	ADC_SetOffset, .-ADC_SetOffset
 643              		.section	.text.ADC_SetGain,"ax",%progbits
 644              		.align	2
 645              		.global	ADC_SetGain
 646              		.thumb
 647              		.thumb_func
 648              		.type	ADC_SetGain, %function
 649              	ADC_SetGain:
 650              	.LFB13:
 665:.\Generated_Source\PSoC5/ADC.c ****     #else
 666:.\Generated_Source\PSoC5/ADC.c ****         ADC_shift = diff_zero;
 667:.\Generated_Source\PSoC5/ADC.c ****     #endif /* End ADC_DEFAULT_RANGE */
 668:.\Generated_Source\PSoC5/ADC.c **** }
 669:.\Generated_Source\PSoC5/ADC.c **** 
 670:.\Generated_Source\PSoC5/ADC.c **** 
 671:.\Generated_Source\PSoC5/ADC.c **** /*******************************************************************************
 672:.\Generated_Source\PSoC5/ADC.c **** * Function Name: ADC_SetGain
 673:.\Generated_Source\PSoC5/ADC.c **** ********************************************************************************
 674:.\Generated_Source\PSoC5/ADC.c **** *
 675:.\Generated_Source\PSoC5/ADC.c **** * Summary:
 676:.\Generated_Source\PSoC5/ADC.c **** *  Sets the ADC gain in counts per volt for the voltage conversion functions
 677:.\Generated_Source\PSoC5/ADC.c **** *  that follow. This value is set by default by the reference and input range
 678:.\Generated_Source\PSoC5/ADC.c **** *  settings. It should only be used to further calibrate the ADC with a known
 679:.\Generated_Source\PSoC5/ADC.c **** *  input or if the ADC is using an external reference.
 680:.\Generated_Source\PSoC5/ADC.c **** *
 681:.\Generated_Source\PSoC5/ADC.c **** * Parameters:
 682:.\Generated_Source\PSoC5/ADC.c **** *  int16 adcGain counts per volt
 683:.\Generated_Source\PSoC5/ADC.c **** *
 684:.\Generated_Source\PSoC5/ADC.c **** * Return:
 685:.\Generated_Source\PSoC5/ADC.c **** *  None.
 686:.\Generated_Source\PSoC5/ADC.c **** *
 687:.\Generated_Source\PSoC5/ADC.c **** * Global Variables:
 688:.\Generated_Source\PSoC5/ADC.c **** *  ADC_countsPer10Volt variable modified. This variable is used
 689:.\Generated_Source\PSoC5/ADC.c **** *  for gain calibration purpose.
 690:.\Generated_Source\PSoC5/ADC.c **** *
 691:.\Generated_Source\PSoC5/ADC.c **** *******************************************************************************/
 692:.\Generated_Source\PSoC5/ADC.c **** void ADC_SetGain(int16 adcGain)
 693:.\Generated_Source\PSoC5/ADC.c **** {
 651              		.loc 1 693 0
 652              		.cfi_startproc
 653              		@ args = 0, pretend = 0, frame = 0
 654              		@ frame_needed = 0, uses_anonymous_args = 0
 655              		@ link register save eliminated.
ARM GAS  C:\Users\Digi-Key\AppData\Local\Temp\ccWaxdFd.s 			page 26


 656              	.LVL44:
 694:.\Generated_Source\PSoC5/ADC.c ****     ADC_countsPer10Volt = (int32)adcGain * 10;
 657              		.loc 1 694 0
 658 0000 00EB8000 		add	r0, r0, r0, lsl #2
 659              	.LVL45:
 660 0004 4000     		lsls	r0, r0, #1
 661 0006 014B     		ldr	r3, .L59
 662 0008 1860     		str	r0, [r3]
 663 000a 7047     		bx	lr
 664              	.L60:
 665              		.align	2
 666              	.L59:
 667 000c 00000000 		.word	ADC_countsPer10Volt
 668              		.cfi_endproc
 669              	.LFE13:
 670              		.size	ADC_SetGain, .-ADC_SetGain
 671              		.section	.text.ADC_SetScaledGain,"ax",%progbits
 672              		.align	2
 673              		.global	ADC_SetScaledGain
 674              		.thumb
 675              		.thumb_func
 676              		.type	ADC_SetScaledGain, %function
 677              	ADC_SetScaledGain:
 678              	.LFB14:
 695:.\Generated_Source\PSoC5/ADC.c **** }
 696:.\Generated_Source\PSoC5/ADC.c **** 
 697:.\Generated_Source\PSoC5/ADC.c **** 
 698:.\Generated_Source\PSoC5/ADC.c **** /*******************************************************************************
 699:.\Generated_Source\PSoC5/ADC.c **** * Function Name: ADC_SetScaledGain
 700:.\Generated_Source\PSoC5/ADC.c **** ********************************************************************************
 701:.\Generated_Source\PSoC5/ADC.c **** *
 702:.\Generated_Source\PSoC5/ADC.c **** * Summary:
 703:.\Generated_Source\PSoC5/ADC.c **** *  Sets the ADC gain in counts per 10 volt for the voltage conversion functions
 704:.\Generated_Source\PSoC5/ADC.c **** *  that follow. This value is set by default by the reference and input range
 705:.\Generated_Source\PSoC5/ADC.c **** *  settings. It should only be used to further calibrate the ADC with a known
 706:.\Generated_Source\PSoC5/ADC.c **** *  input or if the ADC is using an external reference.
 707:.\Generated_Source\PSoC5/ADC.c **** *
 708:.\Generated_Source\PSoC5/ADC.c **** * Parameters:
 709:.\Generated_Source\PSoC5/ADC.c **** *  int32 adcGain  counts per 10 volt
 710:.\Generated_Source\PSoC5/ADC.c **** *
 711:.\Generated_Source\PSoC5/ADC.c **** * Return:
 712:.\Generated_Source\PSoC5/ADC.c **** *  None.
 713:.\Generated_Source\PSoC5/ADC.c **** *
 714:.\Generated_Source\PSoC5/ADC.c **** * Global Variables:
 715:.\Generated_Source\PSoC5/ADC.c **** *  ADC_countsPer10Volt variable modified. This variable is used
 716:.\Generated_Source\PSoC5/ADC.c **** *  for gain calibration purpose.
 717:.\Generated_Source\PSoC5/ADC.c **** *
 718:.\Generated_Source\PSoC5/ADC.c **** *******************************************************************************/
 719:.\Generated_Source\PSoC5/ADC.c **** void ADC_SetScaledGain(int32 adcGain)
 720:.\Generated_Source\PSoC5/ADC.c **** {
 679              		.loc 1 720 0
 680              		.cfi_startproc
 681              		@ args = 0, pretend = 0, frame = 0
 682              		@ frame_needed = 0, uses_anonymous_args = 0
 683              		@ link register save eliminated.
 684              	.LVL46:
 721:.\Generated_Source\PSoC5/ADC.c ****     ADC_countsPer10Volt = adcGain;
ARM GAS  C:\Users\Digi-Key\AppData\Local\Temp\ccWaxdFd.s 			page 27


 685              		.loc 1 721 0
 686 0000 014B     		ldr	r3, .L62
 687 0002 1860     		str	r0, [r3]
 688 0004 7047     		bx	lr
 689              	.L63:
 690 0006 00BF     		.align	2
 691              	.L62:
 692 0008 00000000 		.word	ADC_countsPer10Volt
 693              		.cfi_endproc
 694              	.LFE14:
 695              		.size	ADC_SetScaledGain, .-ADC_SetScaledGain
 696              		.section	.text.ADC_CountsTo_mVolts,"ax",%progbits
 697              		.align	2
 698              		.global	ADC_CountsTo_mVolts
 699              		.thumb
 700              		.thumb_func
 701              		.type	ADC_CountsTo_mVolts, %function
 702              	ADC_CountsTo_mVolts:
 703              	.LFB15:
 722:.\Generated_Source\PSoC5/ADC.c **** }
 723:.\Generated_Source\PSoC5/ADC.c **** 
 724:.\Generated_Source\PSoC5/ADC.c **** 
 725:.\Generated_Source\PSoC5/ADC.c **** /*******************************************************************************
 726:.\Generated_Source\PSoC5/ADC.c **** * Function Name: ADC_CountsTo_mVolts
 727:.\Generated_Source\PSoC5/ADC.c **** ********************************************************************************
 728:.\Generated_Source\PSoC5/ADC.c **** *
 729:.\Generated_Source\PSoC5/ADC.c **** * Summary:
 730:.\Generated_Source\PSoC5/ADC.c **** *  Converts the ADC output to millivolts as a 16-bit integer.
 731:.\Generated_Source\PSoC5/ADC.c **** *
 732:.\Generated_Source\PSoC5/ADC.c **** * Parameters:
 733:.\Generated_Source\PSoC5/ADC.c **** *  int16 adcCounts:  Result from the ADC conversion
 734:.\Generated_Source\PSoC5/ADC.c **** *
 735:.\Generated_Source\PSoC5/ADC.c **** * Return:
 736:.\Generated_Source\PSoC5/ADC.c **** *  int16 Result in mVolts
 737:.\Generated_Source\PSoC5/ADC.c **** *
 738:.\Generated_Source\PSoC5/ADC.c **** * Global Variables:
 739:.\Generated_Source\PSoC5/ADC.c **** *  ADC_offset variable used.
 740:.\Generated_Source\PSoC5/ADC.c **** *  ADC_countsPer10Volt variable used.
 741:.\Generated_Source\PSoC5/ADC.c **** *
 742:.\Generated_Source\PSoC5/ADC.c **** *******************************************************************************/
 743:.\Generated_Source\PSoC5/ADC.c **** int16 ADC_CountsTo_mVolts(int16 adcCounts)
 744:.\Generated_Source\PSoC5/ADC.c **** {
 704              		.loc 1 744 0
 705              		.cfi_startproc
 706              		@ args = 0, pretend = 0, frame = 0
 707              		@ frame_needed = 0, uses_anonymous_args = 0
 708              		@ link register save eliminated.
 709              	.LVL47:
 745:.\Generated_Source\PSoC5/ADC.c ****     int16 mVolts;
 746:.\Generated_Source\PSoC5/ADC.c ****     int32 countsPer10Volt;
 747:.\Generated_Source\PSoC5/ADC.c **** 
 748:.\Generated_Source\PSoC5/ADC.c ****     if(ADC_countsPerVolt != 0)
 710              		.loc 1 748 0
 711 0000 114B     		ldr	r3, .L69
 712 0002 1B88     		ldrh	r3, [r3]
 713 0004 9BB2     		uxth	r3, r3
 714 0006 33B1     		cbz	r3, .L65
ARM GAS  C:\Users\Digi-Key\AppData\Local\Temp\ccWaxdFd.s 			page 28


 749:.\Generated_Source\PSoC5/ADC.c ****     {   /* Support obsolete method */
 750:.\Generated_Source\PSoC5/ADC.c ****         countsPer10Volt = (int32)ADC_countsPerVolt * 10;
 715              		.loc 1 750 0
 716 0008 0F4B     		ldr	r3, .L69
 717 000a 1B88     		ldrh	r3, [r3]
 718 000c 1BB2     		sxth	r3, r3
 719 000e 03EB8303 		add	r3, r3, r3, lsl #2
 720 0012 5B00     		lsls	r3, r3, #1
 721              	.LVL48:
 722 0014 01E0     		b	.L66
 723              	.LVL49:
 724              	.L65:
 751:.\Generated_Source\PSoC5/ADC.c ****     }
 752:.\Generated_Source\PSoC5/ADC.c ****     else
 753:.\Generated_Source\PSoC5/ADC.c ****     {
 754:.\Generated_Source\PSoC5/ADC.c ****         countsPer10Volt = ADC_countsPer10Volt;
 725              		.loc 1 754 0
 726 0016 0D4B     		ldr	r3, .L69+4
 727 0018 1B68     		ldr	r3, [r3]
 728              	.LVL50:
 729              	.L66:
 755:.\Generated_Source\PSoC5/ADC.c ****     }
 756:.\Generated_Source\PSoC5/ADC.c **** 
 757:.\Generated_Source\PSoC5/ADC.c ****     /* Subtract ADC offset */
 758:.\Generated_Source\PSoC5/ADC.c ****     adcCounts -= ADC_offset;
 730              		.loc 1 758 0
 731 001a 0D4A     		ldr	r2, .L69+8
 732 001c 1288     		ldrh	r2, [r2]
 733 001e 801A     		subs	r0, r0, r2
 734              	.LVL51:
 735 0020 00B2     		sxth	r0, r0
 736              	.LVL52:
 759:.\Generated_Source\PSoC5/ADC.c ****     /* Convert to millivolts with rounding */
 760:.\Generated_Source\PSoC5/ADC.c ****     mVolts = (int16)( (( (int32)adcCounts * ADC_10MV_COUNTS ) + ( (adcCounts > 0) ?
 737              		.loc 1 760 0
 738 0022 42F21071 		movw	r1, #10000
 739 0026 01FB00F1 		mul	r1, r1, r0
 761:.\Generated_Source\PSoC5/ADC.c ****                        (countsPer10Volt / 2) : (-(countsPer10Volt / 2)) )) / countsPer10Volt);
 740              		.loc 1 761 0
 741 002a 0028     		cmp	r0, #0
 742 002c 03DD     		ble	.L67
 743              		.loc 1 761 0 is_stmt 0 discriminator 1
 744 002e 03EBD372 		add	r2, r3, r3, lsr #31
 745 0032 5210     		asrs	r2, r2, #1
 746 0034 03E0     		b	.L68
 747              	.L67:
 748              		.loc 1 761 0 discriminator 2
 749 0036 03EBD372 		add	r2, r3, r3, lsr #31
 750 003a 5210     		asrs	r2, r2, #1
 751 003c 5242     		negs	r2, r2
 752              	.L68:
 760:.\Generated_Source\PSoC5/ADC.c ****     mVolts = (int16)( (( (int32)adcCounts * ADC_10MV_COUNTS ) + ( (adcCounts > 0) ?
 753              		.loc 1 760 0 is_stmt 1
 754 003e 0A44     		add	r2, r2, r1
 755              		.loc 1 761 0
 756 0040 92FBF3F0 		sdiv	r0, r2, r3
 757              	.LVL53:
ARM GAS  C:\Users\Digi-Key\AppData\Local\Temp\ccWaxdFd.s 			page 29


 762:.\Generated_Source\PSoC5/ADC.c **** 
 763:.\Generated_Source\PSoC5/ADC.c ****     return( mVolts );
 764:.\Generated_Source\PSoC5/ADC.c **** }
 758              		.loc 1 764 0
 759 0044 00B2     		sxth	r0, r0
 760              	.LVL54:
 761 0046 7047     		bx	lr
 762              	.L70:
 763              		.align	2
 764              	.L69:
 765 0048 00000000 		.word	ADC_countsPerVolt
 766 004c 00000000 		.word	ADC_countsPer10Volt
 767 0050 00000000 		.word	ADC_offset
 768              		.cfi_endproc
 769              	.LFE15:
 770              		.size	ADC_CountsTo_mVolts, .-ADC_CountsTo_mVolts
 771              		.global	__aeabi_ldivmod
 772              		.section	.text.ADC_CountsTo_uVolts,"ax",%progbits
 773              		.align	2
 774              		.global	ADC_CountsTo_uVolts
 775              		.thumb
 776              		.thumb_func
 777              		.type	ADC_CountsTo_uVolts, %function
 778              	ADC_CountsTo_uVolts:
 779              	.LFB16:
 765:.\Generated_Source\PSoC5/ADC.c **** 
 766:.\Generated_Source\PSoC5/ADC.c **** 
 767:.\Generated_Source\PSoC5/ADC.c **** /*******************************************************************************
 768:.\Generated_Source\PSoC5/ADC.c **** * Function Name: ADC_CountsTo_uVolts
 769:.\Generated_Source\PSoC5/ADC.c **** ********************************************************************************
 770:.\Generated_Source\PSoC5/ADC.c **** *
 771:.\Generated_Source\PSoC5/ADC.c **** * Summary:
 772:.\Generated_Source\PSoC5/ADC.c **** *  Converts the ADC output to microvolts as a 32-bit integer.
 773:.\Generated_Source\PSoC5/ADC.c **** *
 774:.\Generated_Source\PSoC5/ADC.c **** * Parameters:
 775:.\Generated_Source\PSoC5/ADC.c **** *  int16 adcCounts: Result from the ADC conversion
 776:.\Generated_Source\PSoC5/ADC.c **** *
 777:.\Generated_Source\PSoC5/ADC.c **** * Return:
 778:.\Generated_Source\PSoC5/ADC.c **** *  int32 Result in micro Volts
 779:.\Generated_Source\PSoC5/ADC.c **** *
 780:.\Generated_Source\PSoC5/ADC.c **** * Global Variables:
 781:.\Generated_Source\PSoC5/ADC.c **** *  ADC_offset variable used.
 782:.\Generated_Source\PSoC5/ADC.c **** *  ADC_countsPer10Volt used to convert ADC counts to uVolts.
 783:.\Generated_Source\PSoC5/ADC.c **** *
 784:.\Generated_Source\PSoC5/ADC.c **** *******************************************************************************/
 785:.\Generated_Source\PSoC5/ADC.c **** int32 ADC_CountsTo_uVolts(int16 adcCounts)
 786:.\Generated_Source\PSoC5/ADC.c **** {
 780              		.loc 1 786 0
 781              		.cfi_startproc
 782              		@ args = 0, pretend = 0, frame = 0
 783              		@ frame_needed = 0, uses_anonymous_args = 0
 784              	.LVL55:
 785 0000 38B5     		push	{r3, r4, r5, lr}
 786              		.cfi_def_cfa_offset 16
 787              		.cfi_offset 3, -16
 788              		.cfi_offset 4, -12
 789              		.cfi_offset 5, -8
ARM GAS  C:\Users\Digi-Key\AppData\Local\Temp\ccWaxdFd.s 			page 30


 790              		.cfi_offset 14, -4
 787:.\Generated_Source\PSoC5/ADC.c **** 
 788:.\Generated_Source\PSoC5/ADC.c ****     int64 uVolts;
 789:.\Generated_Source\PSoC5/ADC.c ****     int32 countsPer10Volt;
 790:.\Generated_Source\PSoC5/ADC.c **** 
 791:.\Generated_Source\PSoC5/ADC.c ****     if(ADC_countsPerVolt != 0)
 791              		.loc 1 791 0
 792 0002 0D4B     		ldr	r3, .L74
 793 0004 1B88     		ldrh	r3, [r3]
 794 0006 9BB2     		uxth	r3, r3
 795 0008 33B1     		cbz	r3, .L72
 792:.\Generated_Source\PSoC5/ADC.c ****     {   /* Support obsolete method */
 793:.\Generated_Source\PSoC5/ADC.c ****         countsPer10Volt = (int32)ADC_countsPerVolt * 10;
 796              		.loc 1 793 0
 797 000a 0B4B     		ldr	r3, .L74
 798 000c 1A88     		ldrh	r2, [r3]
 799 000e 12B2     		sxth	r2, r2
 800 0010 02EB8202 		add	r2, r2, r2, lsl #2
 801 0014 5200     		lsls	r2, r2, #1
 802              	.LVL56:
 803 0016 01E0     		b	.L73
 804              	.LVL57:
 805              	.L72:
 794:.\Generated_Source\PSoC5/ADC.c ****     }
 795:.\Generated_Source\PSoC5/ADC.c ****     else
 796:.\Generated_Source\PSoC5/ADC.c ****     {
 797:.\Generated_Source\PSoC5/ADC.c ****         countsPer10Volt = ADC_countsPer10Volt;
 806              		.loc 1 797 0
 807 0018 084B     		ldr	r3, .L74+4
 808 001a 1A68     		ldr	r2, [r3]
 809              	.LVL58:
 810              	.L73:
 798:.\Generated_Source\PSoC5/ADC.c ****     }
 799:.\Generated_Source\PSoC5/ADC.c **** 
 800:.\Generated_Source\PSoC5/ADC.c ****     /* Subtract ADC offset */
 801:.\Generated_Source\PSoC5/ADC.c ****     adcCounts -= ADC_offset;
 811              		.loc 1 801 0
 812 001c 084B     		ldr	r3, .L74+8
 813 001e 1B88     		ldrh	r3, [r3]
 814              	.LVL59:
 802:.\Generated_Source\PSoC5/ADC.c ****     /* To convert adcCounts to microVolts it is required to be multiplied
 803:.\Generated_Source\PSoC5/ADC.c ****     *  on 10 million and later divide on gain in counts per 10V.
 804:.\Generated_Source\PSoC5/ADC.c ****     */
 805:.\Generated_Source\PSoC5/ADC.c ****     uVolts = (( (int64)adcCounts * ADC_10UV_COUNTS ) / countsPer10Volt);
 815              		.loc 1 805 0
 816 0020 C41A     		subs	r4, r0, r3
 817 0022 24B2     		sxth	r4, r4
 818 0024 E517     		asrs	r5, r4, #31
 819 0026 074B     		ldr	r3, .L74+12
 820              	.LVL60:
 821 0028 A4FB0301 		umull	r0, r1, r4, r3
 822 002c 03FB0511 		mla	r1, r3, r5, r1
 823 0030 D317     		asrs	r3, r2, #31
 824 0032 FFF7FEFF 		bl	__aeabi_ldivmod
 825              	.LVL61:
 806:.\Generated_Source\PSoC5/ADC.c **** 
 807:.\Generated_Source\PSoC5/ADC.c ****     return( uVolts );
ARM GAS  C:\Users\Digi-Key\AppData\Local\Temp\ccWaxdFd.s 			page 31


 808:.\Generated_Source\PSoC5/ADC.c **** }
 826              		.loc 1 808 0
 827 0036 38BD     		pop	{r3, r4, r5, pc}
 828              	.L75:
 829              		.align	2
 830              	.L74:
 831 0038 00000000 		.word	ADC_countsPerVolt
 832 003c 00000000 		.word	ADC_countsPer10Volt
 833 0040 00000000 		.word	ADC_offset
 834 0044 80969800 		.word	10000000
 835              		.cfi_endproc
 836              	.LFE16:
 837              		.size	ADC_CountsTo_uVolts, .-ADC_CountsTo_uVolts
 838              		.global	__aeabi_i2f
 839              		.global	__aeabi_fmul
 840              		.global	__aeabi_fdiv
 841              		.section	.text.ADC_CountsTo_Volts,"ax",%progbits
 842              		.align	2
 843              		.global	ADC_CountsTo_Volts
 844              		.thumb
 845              		.thumb_func
 846              		.type	ADC_CountsTo_Volts, %function
 847              	ADC_CountsTo_Volts:
 848              	.LFB17:
 809:.\Generated_Source\PSoC5/ADC.c **** 
 810:.\Generated_Source\PSoC5/ADC.c **** 
 811:.\Generated_Source\PSoC5/ADC.c **** /*******************************************************************************
 812:.\Generated_Source\PSoC5/ADC.c **** * Function Name: ADC_CountsTo_Volts
 813:.\Generated_Source\PSoC5/ADC.c **** ********************************************************************************
 814:.\Generated_Source\PSoC5/ADC.c **** *
 815:.\Generated_Source\PSoC5/ADC.c **** * Summary:
 816:.\Generated_Source\PSoC5/ADC.c **** *  Converts the ADC output to volts as a floating-point number.
 817:.\Generated_Source\PSoC5/ADC.c **** *
 818:.\Generated_Source\PSoC5/ADC.c **** * Parameters:
 819:.\Generated_Source\PSoC5/ADC.c **** *  int16 adcCounts: Result from the ADC conversion
 820:.\Generated_Source\PSoC5/ADC.c **** *
 821:.\Generated_Source\PSoC5/ADC.c **** * Return:
 822:.\Generated_Source\PSoC5/ADC.c **** *  float Result in Volts
 823:.\Generated_Source\PSoC5/ADC.c **** *
 824:.\Generated_Source\PSoC5/ADC.c **** * Global Variables:
 825:.\Generated_Source\PSoC5/ADC.c **** *  ADC_offset variable used.
 826:.\Generated_Source\PSoC5/ADC.c **** *  ADC_countsPer10Volt used to convert ADC counts to Volts.
 827:.\Generated_Source\PSoC5/ADC.c **** *
 828:.\Generated_Source\PSoC5/ADC.c **** *******************************************************************************/
 829:.\Generated_Source\PSoC5/ADC.c **** float32 ADC_CountsTo_Volts(int16 adcCounts)
 830:.\Generated_Source\PSoC5/ADC.c **** {
 849              		.loc 1 830 0
 850              		.cfi_startproc
 851              		@ args = 0, pretend = 0, frame = 0
 852              		@ frame_needed = 0, uses_anonymous_args = 0
 853              	.LVL62:
 854 0000 38B5     		push	{r3, r4, r5, lr}
 855              		.cfi_def_cfa_offset 16
 856              		.cfi_offset 3, -16
 857              		.cfi_offset 4, -12
 858              		.cfi_offset 5, -8
 859              		.cfi_offset 14, -4
ARM GAS  C:\Users\Digi-Key\AppData\Local\Temp\ccWaxdFd.s 			page 32


 831:.\Generated_Source\PSoC5/ADC.c ****     float32 volts;
 832:.\Generated_Source\PSoC5/ADC.c ****     int32 countsPer10Volt;
 833:.\Generated_Source\PSoC5/ADC.c **** 
 834:.\Generated_Source\PSoC5/ADC.c ****     if(ADC_countsPerVolt != 0)
 860              		.loc 1 834 0
 861 0002 0F4B     		ldr	r3, .L79
 862 0004 1B88     		ldrh	r3, [r3]
 863 0006 9BB2     		uxth	r3, r3
 864 0008 33B1     		cbz	r3, .L77
 835:.\Generated_Source\PSoC5/ADC.c ****     {   /* Support obsolete method */
 836:.\Generated_Source\PSoC5/ADC.c ****         countsPer10Volt = (int32)ADC_countsPerVolt * 10;
 865              		.loc 1 836 0
 866 000a 0D4B     		ldr	r3, .L79
 867 000c 1D88     		ldrh	r5, [r3]
 868 000e 2DB2     		sxth	r5, r5
 869 0010 05EB8505 		add	r5, r5, r5, lsl #2
 870 0014 6D00     		lsls	r5, r5, #1
 871              	.LVL63:
 872 0016 01E0     		b	.L78
 873              	.LVL64:
 874              	.L77:
 837:.\Generated_Source\PSoC5/ADC.c ****     }
 838:.\Generated_Source\PSoC5/ADC.c ****     else
 839:.\Generated_Source\PSoC5/ADC.c ****     {
 840:.\Generated_Source\PSoC5/ADC.c ****         countsPer10Volt = ADC_countsPer10Volt;
 875              		.loc 1 840 0
 876 0018 0A4B     		ldr	r3, .L79+4
 877 001a 1D68     		ldr	r5, [r3]
 878              	.LVL65:
 879              	.L78:
 841:.\Generated_Source\PSoC5/ADC.c ****     }
 842:.\Generated_Source\PSoC5/ADC.c **** 
 843:.\Generated_Source\PSoC5/ADC.c ****     /* Subtract ADC offset */
 844:.\Generated_Source\PSoC5/ADC.c ****     adcCounts -= ADC_offset;
 880              		.loc 1 844 0
 881 001c 0A4B     		ldr	r3, .L79+8
 882 001e 1B88     		ldrh	r3, [r3]
 883 0020 C01A     		subs	r0, r0, r3
 884              	.LVL66:
 845:.\Generated_Source\PSoC5/ADC.c **** 
 846:.\Generated_Source\PSoC5/ADC.c ****     volts = ((float32)adcCounts * ADC_10V_COUNTS) / (float32)countsPer10Volt;
 885              		.loc 1 846 0
 886 0022 00B2     		sxth	r0, r0
 887              	.LVL67:
 888 0024 FFF7FEFF 		bl	__aeabi_i2f
 889              	.LVL68:
 890 0028 0849     		ldr	r1, .L79+12
 891 002a FFF7FEFF 		bl	__aeabi_fmul
 892              	.LVL69:
 893 002e 0446     		mov	r4, r0
 894 0030 2846     		mov	r0, r5
 895 0032 FFF7FEFF 		bl	__aeabi_i2f
 896              	.LVL70:
 897 0036 0146     		mov	r1, r0
 898 0038 2046     		mov	r0, r4
 899 003a FFF7FEFF 		bl	__aeabi_fdiv
 900              	.LVL71:
ARM GAS  C:\Users\Digi-Key\AppData\Local\Temp\ccWaxdFd.s 			page 33


 847:.\Generated_Source\PSoC5/ADC.c **** 
 848:.\Generated_Source\PSoC5/ADC.c ****     return( volts );
 849:.\Generated_Source\PSoC5/ADC.c **** }
 901              		.loc 1 849 0
 902 003e 38BD     		pop	{r3, r4, r5, pc}
 903              	.LVL72:
 904              	.L80:
 905              		.align	2
 906              	.L79:
 907 0040 00000000 		.word	ADC_countsPerVolt
 908 0044 00000000 		.word	ADC_countsPer10Volt
 909 0048 00000000 		.word	ADC_offset
 910 004c 00002041 		.word	1092616192
 911              		.cfi_endproc
 912              	.LFE17:
 913              		.size	ADC_CountsTo_Volts, .-ADC_CountsTo_Volts
 914              		.comm	ADC_shift,2,2
 915              		.comm	ADC_countsPer10Volt,4,4
 916              		.comm	ADC_countsPerVolt,2,2
 917              		.comm	ADC_offset,2,2
 918              		.global	ADC_initVar
 919              		.bss
 920              		.set	.LANCHOR0,. + 0
 921              		.type	ADC_initVar, %object
 922              		.size	ADC_initVar, 1
 923              	ADC_initVar:
 924 0000 00       		.space	1
 925              		.text
 926              	.Letext0:
 927              		.file 2 ".\\Generated_Source\\PSoC5\\cytypes.h"
 928              		.file 3 ".\\Generated_Source\\PSoC5\\CyLib.h"
 929              		.file 4 ".\\Generated_Source\\PSoC5\\ADC_theACLK.h"