ARM GAS  C:\Users\Digi-Key\AppData\Local\Temp\ccZDdc1G.s 			page 1


   1              		.syntax unified
   2              		.cpu cortex-m3
   3              		.fpu softvfp
   4              		.eabi_attribute 20, 1
   5              		.eabi_attribute 21, 1
   6              		.eabi_attribute 23, 3
   7              		.eabi_attribute 24, 1
   8              		.eabi_attribute 25, 1
   9              		.eabi_attribute 26, 1
  10              		.eabi_attribute 30, 1
  11              		.eabi_attribute 34, 1
  12              		.eabi_attribute 18, 4
  13              		.thumb
  14              		.file	"cyfitter_cfg.c"
  15              		.text
  16              	.Ltext0:
  17              		.cfi_sections	.debug_frame
  18              		.section	.text.CyClockStartupError,"ax",%progbits
  19              		.align	2
  20              		.thumb
  21              		.thumb_func
  22              		.type	CyClockStartupError, %function
  23              	CyClockStartupError:
  24              	.LFB3:
  25              		.file 1 ".\\Generated_Source\\PSoC5\\cyfitter_cfg.c"
   1:.\Generated_Source\PSoC5/cyfitter_cfg.c **** /*******************************************************************************
   2:.\Generated_Source\PSoC5/cyfitter_cfg.c **** * FILENAME: cyfitter_cfg.c
   3:.\Generated_Source\PSoC5/cyfitter_cfg.c **** * 
   4:.\Generated_Source\PSoC5/cyfitter_cfg.c **** * PSoC Creator  3.2 SP1
   5:.\Generated_Source\PSoC5/cyfitter_cfg.c **** *
   6:.\Generated_Source\PSoC5/cyfitter_cfg.c **** * DESCRIPTION:
   7:.\Generated_Source\PSoC5/cyfitter_cfg.c **** * This file contains device initialization code.
   8:.\Generated_Source\PSoC5/cyfitter_cfg.c **** * Except for the user defined sections in CyClockStartupError(), this file should not be modified.
   9:.\Generated_Source\PSoC5/cyfitter_cfg.c **** * This file is automatically generated by PSoC Creator.
  10:.\Generated_Source\PSoC5/cyfitter_cfg.c **** *
  11:.\Generated_Source\PSoC5/cyfitter_cfg.c **** ********************************************************************************
  12:.\Generated_Source\PSoC5/cyfitter_cfg.c **** * Copyright (c) 2007-2015 Cypress Semiconductor.  All rights reserved.
  13:.\Generated_Source\PSoC5/cyfitter_cfg.c **** * You may use this file only in accordance with the license, terms, conditions, 
  14:.\Generated_Source\PSoC5/cyfitter_cfg.c **** * disclaimers, and limitations in the end user license agreement accompanying 
  15:.\Generated_Source\PSoC5/cyfitter_cfg.c **** * the software package with which this file was provided.
  16:.\Generated_Source\PSoC5/cyfitter_cfg.c **** ********************************************************************************/
  17:.\Generated_Source\PSoC5/cyfitter_cfg.c **** 
  18:.\Generated_Source\PSoC5/cyfitter_cfg.c **** #include <string.h>
  19:.\Generated_Source\PSoC5/cyfitter_cfg.c **** #include "cytypes.h"
  20:.\Generated_Source\PSoC5/cyfitter_cfg.c **** #include "cydevice_trm.h"
  21:.\Generated_Source\PSoC5/cyfitter_cfg.c **** #include "cyfitter.h"
  22:.\Generated_Source\PSoC5/cyfitter_cfg.c **** #include "CyLib.h"
  23:.\Generated_Source\PSoC5/cyfitter_cfg.c **** #include "cyfitter_cfg.h"
  24:.\Generated_Source\PSoC5/cyfitter_cfg.c **** 
  25:.\Generated_Source\PSoC5/cyfitter_cfg.c **** #define CY_NEED_CYCLOCKSTARTUPERROR 1
  26:.\Generated_Source\PSoC5/cyfitter_cfg.c **** 
  27:.\Generated_Source\PSoC5/cyfitter_cfg.c **** 
  28:.\Generated_Source\PSoC5/cyfitter_cfg.c **** #if defined(__GNUC__) || defined(__ARMCC_VERSION)
  29:.\Generated_Source\PSoC5/cyfitter_cfg.c ****     #define CYPACKED 
  30:.\Generated_Source\PSoC5/cyfitter_cfg.c ****     #define CYPACKED_ATTR __attribute__ ((packed))
  31:.\Generated_Source\PSoC5/cyfitter_cfg.c ****     #define CYALIGNED __attribute__ ((aligned))
  32:.\Generated_Source\PSoC5/cyfitter_cfg.c ****     #define CY_CFG_UNUSED __attribute__ ((unused))
ARM GAS  C:\Users\Digi-Key\AppData\Local\Temp\ccZDdc1G.s 			page 2


  33:.\Generated_Source\PSoC5/cyfitter_cfg.c ****     #define CY_CFG_SECTION __attribute__ ((section(".psocinit")))
  34:.\Generated_Source\PSoC5/cyfitter_cfg.c ****     
  35:.\Generated_Source\PSoC5/cyfitter_cfg.c ****     #if defined(__ARMCC_VERSION)
  36:.\Generated_Source\PSoC5/cyfitter_cfg.c ****         #define CY_CFG_MEMORY_BARRIER() __memory_changed()
  37:.\Generated_Source\PSoC5/cyfitter_cfg.c ****     #else
  38:.\Generated_Source\PSoC5/cyfitter_cfg.c ****         #define CY_CFG_MEMORY_BARRIER() __sync_synchronize()
  39:.\Generated_Source\PSoC5/cyfitter_cfg.c ****     #endif
  40:.\Generated_Source\PSoC5/cyfitter_cfg.c ****     
  41:.\Generated_Source\PSoC5/cyfitter_cfg.c **** #elif defined(__ICCARM__)
  42:.\Generated_Source\PSoC5/cyfitter_cfg.c ****     #include <intrinsics.h>
  43:.\Generated_Source\PSoC5/cyfitter_cfg.c **** 
  44:.\Generated_Source\PSoC5/cyfitter_cfg.c ****     #define CYPACKED __packed
  45:.\Generated_Source\PSoC5/cyfitter_cfg.c ****     #define CYPACKED_ATTR 
  46:.\Generated_Source\PSoC5/cyfitter_cfg.c ****     #define CYALIGNED _Pragma("data_alignment=4")
  47:.\Generated_Source\PSoC5/cyfitter_cfg.c ****     #define CY_CFG_UNUSED _Pragma("diag_suppress=Pe177")
  48:.\Generated_Source\PSoC5/cyfitter_cfg.c ****     #define CY_CFG_SECTION _Pragma("location=\".psocinit\"")
  49:.\Generated_Source\PSoC5/cyfitter_cfg.c ****     
  50:.\Generated_Source\PSoC5/cyfitter_cfg.c ****     #define CY_CFG_MEMORY_BARRIER() __DMB()
  51:.\Generated_Source\PSoC5/cyfitter_cfg.c ****     
  52:.\Generated_Source\PSoC5/cyfitter_cfg.c **** #else
  53:.\Generated_Source\PSoC5/cyfitter_cfg.c ****     #error Unsupported toolchain
  54:.\Generated_Source\PSoC5/cyfitter_cfg.c **** #endif
  55:.\Generated_Source\PSoC5/cyfitter_cfg.c **** 
  56:.\Generated_Source\PSoC5/cyfitter_cfg.c **** 
  57:.\Generated_Source\PSoC5/cyfitter_cfg.c **** CY_CFG_UNUSED
  58:.\Generated_Source\PSoC5/cyfitter_cfg.c **** static void CYMEMZERO(void *s, size_t n);
  59:.\Generated_Source\PSoC5/cyfitter_cfg.c **** CY_CFG_UNUSED
  60:.\Generated_Source\PSoC5/cyfitter_cfg.c **** static void CYMEMZERO(void *s, size_t n)
  61:.\Generated_Source\PSoC5/cyfitter_cfg.c **** {
  62:.\Generated_Source\PSoC5/cyfitter_cfg.c **** 	(void)memset(s, 0, n);
  63:.\Generated_Source\PSoC5/cyfitter_cfg.c **** }
  64:.\Generated_Source\PSoC5/cyfitter_cfg.c **** CY_CFG_UNUSED
  65:.\Generated_Source\PSoC5/cyfitter_cfg.c **** static void CYCONFIGCPY(void *dest, const void *src, size_t n);
  66:.\Generated_Source\PSoC5/cyfitter_cfg.c **** CY_CFG_UNUSED
  67:.\Generated_Source\PSoC5/cyfitter_cfg.c **** static void CYCONFIGCPY(void *dest, const void *src, size_t n)
  68:.\Generated_Source\PSoC5/cyfitter_cfg.c **** {
  69:.\Generated_Source\PSoC5/cyfitter_cfg.c **** 	(void)memcpy(dest, src, n);
  70:.\Generated_Source\PSoC5/cyfitter_cfg.c **** }
  71:.\Generated_Source\PSoC5/cyfitter_cfg.c **** CY_CFG_UNUSED
  72:.\Generated_Source\PSoC5/cyfitter_cfg.c **** static void CYCONFIGCPYCODE(void *dest, const void *src, size_t n);
  73:.\Generated_Source\PSoC5/cyfitter_cfg.c **** CY_CFG_UNUSED
  74:.\Generated_Source\PSoC5/cyfitter_cfg.c **** static void CYCONFIGCPYCODE(void *dest, const void *src, size_t n)
  75:.\Generated_Source\PSoC5/cyfitter_cfg.c **** {
  76:.\Generated_Source\PSoC5/cyfitter_cfg.c **** 	(void)memcpy(dest, src, n);
  77:.\Generated_Source\PSoC5/cyfitter_cfg.c **** }
  78:.\Generated_Source\PSoC5/cyfitter_cfg.c **** 
  79:.\Generated_Source\PSoC5/cyfitter_cfg.c **** 
  80:.\Generated_Source\PSoC5/cyfitter_cfg.c **** 
  81:.\Generated_Source\PSoC5/cyfitter_cfg.c **** /* Clock startup error codes                                                   */
  82:.\Generated_Source\PSoC5/cyfitter_cfg.c **** #define CYCLOCKSTART_NO_ERROR    0u
  83:.\Generated_Source\PSoC5/cyfitter_cfg.c **** #define CYCLOCKSTART_XTAL_ERROR  1u
  84:.\Generated_Source\PSoC5/cyfitter_cfg.c **** #define CYCLOCKSTART_32KHZ_ERROR 2u
  85:.\Generated_Source\PSoC5/cyfitter_cfg.c **** #define CYCLOCKSTART_PLL_ERROR   3u
  86:.\Generated_Source\PSoC5/cyfitter_cfg.c **** 
  87:.\Generated_Source\PSoC5/cyfitter_cfg.c **** #ifdef CY_NEED_CYCLOCKSTARTUPERROR
  88:.\Generated_Source\PSoC5/cyfitter_cfg.c **** /*******************************************************************************
  89:.\Generated_Source\PSoC5/cyfitter_cfg.c **** * Function Name: CyClockStartupError
ARM GAS  C:\Users\Digi-Key\AppData\Local\Temp\ccZDdc1G.s 			page 3


  90:.\Generated_Source\PSoC5/cyfitter_cfg.c **** ********************************************************************************
  91:.\Generated_Source\PSoC5/cyfitter_cfg.c **** * Summary:
  92:.\Generated_Source\PSoC5/cyfitter_cfg.c **** *  If an error is encountered during clock configuration (crystal startup error,
  93:.\Generated_Source\PSoC5/cyfitter_cfg.c **** *  PLL lock error, etc.), the system will end up here.  Unless reimplemented by
  94:.\Generated_Source\PSoC5/cyfitter_cfg.c **** *  the customer, this function will stop in an infinite loop.
  95:.\Generated_Source\PSoC5/cyfitter_cfg.c **** *
  96:.\Generated_Source\PSoC5/cyfitter_cfg.c **** * Parameters:
  97:.\Generated_Source\PSoC5/cyfitter_cfg.c **** *   void
  98:.\Generated_Source\PSoC5/cyfitter_cfg.c **** *
  99:.\Generated_Source\PSoC5/cyfitter_cfg.c **** * Return:
 100:.\Generated_Source\PSoC5/cyfitter_cfg.c **** *   void
 101:.\Generated_Source\PSoC5/cyfitter_cfg.c **** *
 102:.\Generated_Source\PSoC5/cyfitter_cfg.c **** *******************************************************************************/
 103:.\Generated_Source\PSoC5/cyfitter_cfg.c **** CY_CFG_UNUSED
 104:.\Generated_Source\PSoC5/cyfitter_cfg.c **** static void CyClockStartupError(uint8 errorCode);
 105:.\Generated_Source\PSoC5/cyfitter_cfg.c **** CY_CFG_UNUSED
 106:.\Generated_Source\PSoC5/cyfitter_cfg.c **** static void CyClockStartupError(uint8 errorCode)
 107:.\Generated_Source\PSoC5/cyfitter_cfg.c **** {
  26              		.loc 1 107 0
  27              		.cfi_startproc
  28              		@ Volatile: function does not return.
  29              		@ args = 0, pretend = 0, frame = 0
  30              		@ frame_needed = 0, uses_anonymous_args = 0
  31              		@ link register save eliminated.
  32              	.LVL0:
  33              	.L2:
  34 0000 FEE7     		b	.L2
  35              		.cfi_endproc
  36              	.LFE3:
  37              		.size	CyClockStartupError, .-CyClockStartupError
  38 0002 00BF     		.section	.text.cfg_write_bytes32,"ax",%progbits
  39              		.align	2
  40              		.thumb
  41              		.thumb_func
  42              		.type	cfg_write_bytes32, %function
  43              	cfg_write_bytes32:
  44              	.LFB4:
 108:.\Generated_Source\PSoC5/cyfitter_cfg.c ****     /* To remove the compiler warning if errorCode not used.                */
 109:.\Generated_Source\PSoC5/cyfitter_cfg.c ****     errorCode = errorCode;
 110:.\Generated_Source\PSoC5/cyfitter_cfg.c **** 
 111:.\Generated_Source\PSoC5/cyfitter_cfg.c ****     /* `#START CyClockStartupError` */
 112:.\Generated_Source\PSoC5/cyfitter_cfg.c **** 
 113:.\Generated_Source\PSoC5/cyfitter_cfg.c ****     /* If we have a clock startup error (bad MHz crystal, PLL lock, etc.),  */
 114:.\Generated_Source\PSoC5/cyfitter_cfg.c ****     /* we will end up here to allow the customer to implement something to  */
 115:.\Generated_Source\PSoC5/cyfitter_cfg.c ****     /* deal with the clock condition.                                       */
 116:.\Generated_Source\PSoC5/cyfitter_cfg.c **** 
 117:.\Generated_Source\PSoC5/cyfitter_cfg.c ****     /* `#END` */
 118:.\Generated_Source\PSoC5/cyfitter_cfg.c **** 
 119:.\Generated_Source\PSoC5/cyfitter_cfg.c ****     /* If nothing else, stop here since the clocks have not started         */
 120:.\Generated_Source\PSoC5/cyfitter_cfg.c ****     /* correctly.                                                           */
 121:.\Generated_Source\PSoC5/cyfitter_cfg.c ****     while(1) {}
 122:.\Generated_Source\PSoC5/cyfitter_cfg.c **** }
 123:.\Generated_Source\PSoC5/cyfitter_cfg.c **** #endif
 124:.\Generated_Source\PSoC5/cyfitter_cfg.c **** 
 125:.\Generated_Source\PSoC5/cyfitter_cfg.c **** #define CY_CFG_BASE_ADDR_COUNT 20u
 126:.\Generated_Source\PSoC5/cyfitter_cfg.c **** CYPACKED typedef struct
 127:.\Generated_Source\PSoC5/cyfitter_cfg.c **** {
ARM GAS  C:\Users\Digi-Key\AppData\Local\Temp\ccZDdc1G.s 			page 4


 128:.\Generated_Source\PSoC5/cyfitter_cfg.c **** 	uint8 offset;
 129:.\Generated_Source\PSoC5/cyfitter_cfg.c **** 	uint8 value;
 130:.\Generated_Source\PSoC5/cyfitter_cfg.c **** } CYPACKED_ATTR cy_cfg_addrvalue_t;
 131:.\Generated_Source\PSoC5/cyfitter_cfg.c **** 
 132:.\Generated_Source\PSoC5/cyfitter_cfg.c **** #define cy_cfg_addr_table ((const uint32 CYFAR *)0x48000000u)
 133:.\Generated_Source\PSoC5/cyfitter_cfg.c **** #define cy_cfg_data_table ((const cy_cfg_addrvalue_t CYFAR *)0x48000050u)
 134:.\Generated_Source\PSoC5/cyfitter_cfg.c **** 
 135:.\Generated_Source\PSoC5/cyfitter_cfg.c **** /* IOPORT_7 Address: CYDEV_PRTDSI_PRT12_BASE Size (bytes): 6 */
 136:.\Generated_Source\PSoC5/cyfitter_cfg.c **** #define BS_IOPORT_7_VAL ((const uint8 CYFAR *)0x480003F0u)
 137:.\Generated_Source\PSoC5/cyfitter_cfg.c **** 
 138:.\Generated_Source\PSoC5/cyfitter_cfg.c **** /* IOPINS0_0 Address: CYREG_PRT0_DM0 Size (bytes): 8 */
 139:.\Generated_Source\PSoC5/cyfitter_cfg.c **** #define BS_IOPINS0_0_VAL ((const uint8 CYFAR *)0x480003F8u)
 140:.\Generated_Source\PSoC5/cyfitter_cfg.c **** 
 141:.\Generated_Source\PSoC5/cyfitter_cfg.c **** /* IOPINS0_7 Address: CYREG_PRT12_DR Size (bytes): 10 */
 142:.\Generated_Source\PSoC5/cyfitter_cfg.c **** #define BS_IOPINS0_7_VAL ((const uint8 CYFAR *)0x48000400u)
 143:.\Generated_Source\PSoC5/cyfitter_cfg.c **** 
 144:.\Generated_Source\PSoC5/cyfitter_cfg.c **** /* IOPINS0_2 Address: CYREG_PRT2_DM0 Size (bytes): 8 */
 145:.\Generated_Source\PSoC5/cyfitter_cfg.c **** #define BS_IOPINS0_2_VAL ((const uint8 CYFAR *)0x4800040Cu)
 146:.\Generated_Source\PSoC5/cyfitter_cfg.c **** 
 147:.\Generated_Source\PSoC5/cyfitter_cfg.c **** 
 148:.\Generated_Source\PSoC5/cyfitter_cfg.c **** /*******************************************************************************
 149:.\Generated_Source\PSoC5/cyfitter_cfg.c **** * Function Name: cfg_write_bytes32
 150:.\Generated_Source\PSoC5/cyfitter_cfg.c **** ********************************************************************************
 151:.\Generated_Source\PSoC5/cyfitter_cfg.c **** * Summary:
 152:.\Generated_Source\PSoC5/cyfitter_cfg.c **** *  This function is used for setting up the chip configuration areas that
 153:.\Generated_Source\PSoC5/cyfitter_cfg.c **** *  contain relatively sparse data.
 154:.\Generated_Source\PSoC5/cyfitter_cfg.c **** *
 155:.\Generated_Source\PSoC5/cyfitter_cfg.c **** * Parameters:
 156:.\Generated_Source\PSoC5/cyfitter_cfg.c **** *   void
 157:.\Generated_Source\PSoC5/cyfitter_cfg.c **** *
 158:.\Generated_Source\PSoC5/cyfitter_cfg.c **** * Return:
 159:.\Generated_Source\PSoC5/cyfitter_cfg.c **** *   void
 160:.\Generated_Source\PSoC5/cyfitter_cfg.c **** *
 161:.\Generated_Source\PSoC5/cyfitter_cfg.c **** *******************************************************************************/
 162:.\Generated_Source\PSoC5/cyfitter_cfg.c **** static void cfg_write_bytes32(const uint32 addr_table[], const cy_cfg_addrvalue_t data_table[]);
 163:.\Generated_Source\PSoC5/cyfitter_cfg.c **** static void cfg_write_bytes32(const uint32 addr_table[], const cy_cfg_addrvalue_t data_table[])
 164:.\Generated_Source\PSoC5/cyfitter_cfg.c **** {
  45              		.loc 1 164 0
  46              		.cfi_startproc
  47              		@ args = 0, pretend = 0, frame = 0
  48              		@ frame_needed = 0, uses_anonymous_args = 0
  49              		@ link register save eliminated.
  50              	.LVL1:
  51              		.loc 1 164 0
  52 0000 F0B4     		push	{r4, r5, r6, r7}
  53              		.cfi_def_cfa_offset 16
  54              		.cfi_offset 4, -16
  55              		.cfi_offset 5, -12
  56              		.cfi_offset 6, -8
  57              		.cfi_offset 7, -4
  58              	.LVL2:
 165:.\Generated_Source\PSoC5/cyfitter_cfg.c **** 	/* For 32-bit little-endian architectures */
 166:.\Generated_Source\PSoC5/cyfitter_cfg.c **** 	uint32 i, j = 0u;
  59              		.loc 1 166 0
  60 0002 0023     		movs	r3, #0
 167:.\Generated_Source\PSoC5/cyfitter_cfg.c **** 	for (i = 0u; i < CY_CFG_BASE_ADDR_COUNT; i++)
  61              		.loc 1 167 0
ARM GAS  C:\Users\Digi-Key\AppData\Local\Temp\ccZDdc1G.s 			page 5


  62 0004 1F46     		mov	r7, r3
  63 0006 11E0     		b	.L4
  64              	.LVL3:
  65              	.L7:
  66              	.LBB2:
 168:.\Generated_Source\PSoC5/cyfitter_cfg.c **** 	{
 169:.\Generated_Source\PSoC5/cyfitter_cfg.c **** 		uint32 baseAddr = addr_table[i];
  67              		.loc 1 169 0
  68 0008 50F82760 		ldr	r6, [r0, r7, lsl #2]
  69              	.LVL4:
 170:.\Generated_Source\PSoC5/cyfitter_cfg.c **** 		uint8 count = (uint8)baseAddr;
  70              		.loc 1 170 0
  71 000c F2B2     		uxtb	r2, r6
  72              	.LVL5:
 171:.\Generated_Source\PSoC5/cyfitter_cfg.c **** 		baseAddr &= 0xFFFFFF00u;
  73              		.loc 1 171 0
  74 000e 26F0FF06 		bic	r6, r6, #255
  75              	.LVL6:
 172:.\Generated_Source\PSoC5/cyfitter_cfg.c **** 		while (count != 0u)
  76              		.loc 1 172 0
  77 0012 08E0     		b	.L5
  78              	.L6:
 173:.\Generated_Source\PSoC5/cyfitter_cfg.c **** 		{
 174:.\Generated_Source\PSoC5/cyfitter_cfg.c **** 			CY_SET_XTND_REG8((void CYFAR *)(baseAddr + data_table[j].offset), data_table[j].value);
  79              		.loc 1 174 0
  80 0014 01EB4305 		add	r5, r1, r3, lsl #1
  81 0018 11F81340 		ldrb	r4, [r1, r3, lsl #1]	@ zero_extendqisi2
  82 001c 6D78     		ldrb	r5, [r5, #1]	@ zero_extendqisi2
  83 001e A555     		strb	r5, [r4, r6]
 175:.\Generated_Source\PSoC5/cyfitter_cfg.c **** 			j++;
  84              		.loc 1 175 0
  85 0020 0133     		adds	r3, r3, #1
  86              	.LVL7:
 176:.\Generated_Source\PSoC5/cyfitter_cfg.c **** 			count--;
  87              		.loc 1 176 0
  88 0022 013A     		subs	r2, r2, #1
  89              	.LVL8:
  90 0024 D2B2     		uxtb	r2, r2
  91              	.LVL9:
  92              	.L5:
 172:.\Generated_Source\PSoC5/cyfitter_cfg.c **** 		while (count != 0u)
  93              		.loc 1 172 0 discriminator 1
  94 0026 002A     		cmp	r2, #0
  95 0028 F4D1     		bne	.L6
  96              	.LBE2:
 167:.\Generated_Source\PSoC5/cyfitter_cfg.c **** 	for (i = 0u; i < CY_CFG_BASE_ADDR_COUNT; i++)
  97              		.loc 1 167 0
  98 002a 0137     		adds	r7, r7, #1
  99              	.LVL10:
 100              	.L4:
 167:.\Generated_Source\PSoC5/cyfitter_cfg.c **** 	for (i = 0u; i < CY_CFG_BASE_ADDR_COUNT; i++)
 101              		.loc 1 167 0 is_stmt 0 discriminator 1
 102 002c 132F     		cmp	r7, #19
 103 002e EBD9     		bls	.L7
 177:.\Generated_Source\PSoC5/cyfitter_cfg.c **** 		}
 178:.\Generated_Source\PSoC5/cyfitter_cfg.c **** 	}
 179:.\Generated_Source\PSoC5/cyfitter_cfg.c **** }
ARM GAS  C:\Users\Digi-Key\AppData\Local\Temp\ccZDdc1G.s 			page 6


 104              		.loc 1 179 0 is_stmt 1
 105 0030 F0BC     		pop	{r4, r5, r6, r7}
 106              	.LVL11:
 107 0032 7047     		bx	lr
 108              		.cfi_endproc
 109              	.LFE4:
 110              		.size	cfg_write_bytes32, .-cfg_write_bytes32
 111              		.section	.text.AnalogSetDefault,"ax",%progbits
 112              		.align	2
 113              		.thumb
 114              		.thumb_func
 115              		.type	AnalogSetDefault, %function
 116              	AnalogSetDefault:
 117              	.LFB6:
 180:.\Generated_Source\PSoC5/cyfitter_cfg.c **** 
 181:.\Generated_Source\PSoC5/cyfitter_cfg.c **** /*******************************************************************************
 182:.\Generated_Source\PSoC5/cyfitter_cfg.c **** * Function Name: ClockSetup
 183:.\Generated_Source\PSoC5/cyfitter_cfg.c **** ********************************************************************************
 184:.\Generated_Source\PSoC5/cyfitter_cfg.c **** *
 185:.\Generated_Source\PSoC5/cyfitter_cfg.c **** * Summary:
 186:.\Generated_Source\PSoC5/cyfitter_cfg.c **** *  Performs the initialization of all of the clocks in the device based on the
 187:.\Generated_Source\PSoC5/cyfitter_cfg.c **** *  settings in the Clock tab of the DWR.  This includes enabling the requested
 188:.\Generated_Source\PSoC5/cyfitter_cfg.c **** *  clocks and setting the necessary dividers to produce the desired frequency. 
 189:.\Generated_Source\PSoC5/cyfitter_cfg.c **** *
 190:.\Generated_Source\PSoC5/cyfitter_cfg.c **** * Parameters:
 191:.\Generated_Source\PSoC5/cyfitter_cfg.c **** *  void
 192:.\Generated_Source\PSoC5/cyfitter_cfg.c **** *
 193:.\Generated_Source\PSoC5/cyfitter_cfg.c **** * Return:
 194:.\Generated_Source\PSoC5/cyfitter_cfg.c **** *  void
 195:.\Generated_Source\PSoC5/cyfitter_cfg.c **** *
 196:.\Generated_Source\PSoC5/cyfitter_cfg.c **** *******************************************************************************/
 197:.\Generated_Source\PSoC5/cyfitter_cfg.c **** static void ClockSetup(void);
 198:.\Generated_Source\PSoC5/cyfitter_cfg.c **** static void ClockSetup(void)
 199:.\Generated_Source\PSoC5/cyfitter_cfg.c **** {
 200:.\Generated_Source\PSoC5/cyfitter_cfg.c **** 	uint32 timeout;
 201:.\Generated_Source\PSoC5/cyfitter_cfg.c **** 	uint8 pllLock;
 202:.\Generated_Source\PSoC5/cyfitter_cfg.c **** 
 203:.\Generated_Source\PSoC5/cyfitter_cfg.c **** 
 204:.\Generated_Source\PSoC5/cyfitter_cfg.c **** 	/* Configure Digital Clocks based on settings from Clock DWR */
 205:.\Generated_Source\PSoC5/cyfitter_cfg.c **** 	CY_SET_XTND_REG16((void CYFAR *)(CYREG_CLKDIST_DCFG0_CFG0), 0x0001u);
 206:.\Generated_Source\PSoC5/cyfitter_cfg.c **** 	CY_SET_XTND_REG8((void CYFAR *)(CYREG_CLKDIST_DCFG0_CFG0 + 0x2u), 0x18u);
 207:.\Generated_Source\PSoC5/cyfitter_cfg.c **** 	CY_SET_XTND_REG16((void CYFAR *)(CYREG_CLKDIST_DCFG1_CFG0), 0x0019u);
 208:.\Generated_Source\PSoC5/cyfitter_cfg.c **** 	CY_SET_XTND_REG8((void CYFAR *)(CYREG_CLKDIST_DCFG1_CFG0 + 0x2u), 0x18u);
 209:.\Generated_Source\PSoC5/cyfitter_cfg.c **** 
 210:.\Generated_Source\PSoC5/cyfitter_cfg.c **** 	/* Configure ILO based on settings from Clock DWR */
 211:.\Generated_Source\PSoC5/cyfitter_cfg.c **** 	CY_SET_XTND_REG8((void CYFAR *)(CYREG_SLOWCLK_ILO_CR0), 0x02u);
 212:.\Generated_Source\PSoC5/cyfitter_cfg.c **** 	CY_SET_XTND_REG8((void CYFAR *)(CYREG_CLKDIST_CR), 0x08u);
 213:.\Generated_Source\PSoC5/cyfitter_cfg.c **** 
 214:.\Generated_Source\PSoC5/cyfitter_cfg.c **** 	/* Configure IMO based on settings from Clock DWR */
 215:.\Generated_Source\PSoC5/cyfitter_cfg.c **** 	CY_SET_XTND_REG8((void CYFAR *)(CYREG_FASTCLK_IMO_CR), 0x03u);
 216:.\Generated_Source\PSoC5/cyfitter_cfg.c **** 	CY_SET_XTND_REG8((void CYFAR *)(CYREG_IMO_TR1), (CY_GET_XTND_REG8((void CYFAR *)CYREG_FLSHID_CUST_
 217:.\Generated_Source\PSoC5/cyfitter_cfg.c **** 
 218:.\Generated_Source\PSoC5/cyfitter_cfg.c **** 	/* Configure PLL based on settings from Clock DWR */
 219:.\Generated_Source\PSoC5/cyfitter_cfg.c **** 	CY_SET_XTND_REG16((void CYFAR *)(CYREG_FASTCLK_PLL_P), 0x0008u);
 220:.\Generated_Source\PSoC5/cyfitter_cfg.c **** 	CY_SET_XTND_REG16((void CYFAR *)(CYREG_FASTCLK_PLL_CFG0), 0x1251u);
 221:.\Generated_Source\PSoC5/cyfitter_cfg.c **** 	/* Wait up to 250us for the PLL to lock */
 222:.\Generated_Source\PSoC5/cyfitter_cfg.c **** 	pllLock = 0u;
ARM GAS  C:\Users\Digi-Key\AppData\Local\Temp\ccZDdc1G.s 			page 7


 223:.\Generated_Source\PSoC5/cyfitter_cfg.c **** 	for (timeout = 250u / 10u; (timeout > 0u) && (pllLock != 0x03u); timeout--)
 224:.\Generated_Source\PSoC5/cyfitter_cfg.c **** 	{ 
 225:.\Generated_Source\PSoC5/cyfitter_cfg.c **** 		pllLock = 0x03u & ((uint8)((uint8)pllLock << 1) | ((CY_GET_XTND_REG8((void CYFAR *)CYREG_FASTCLK_
 226:.\Generated_Source\PSoC5/cyfitter_cfg.c **** 		CyDelayCycles(10u * 48u); /* Delay 10us based on 48MHz clock */
 227:.\Generated_Source\PSoC5/cyfitter_cfg.c **** 	}
 228:.\Generated_Source\PSoC5/cyfitter_cfg.c **** 	/* If we ran out of time the PLL didn't lock so go to the error function */
 229:.\Generated_Source\PSoC5/cyfitter_cfg.c **** 	if (timeout == 0u)
 230:.\Generated_Source\PSoC5/cyfitter_cfg.c **** 	{
 231:.\Generated_Source\PSoC5/cyfitter_cfg.c **** 		CyClockStartupError(CYCLOCKSTART_PLL_ERROR);
 232:.\Generated_Source\PSoC5/cyfitter_cfg.c **** 	}
 233:.\Generated_Source\PSoC5/cyfitter_cfg.c **** 
 234:.\Generated_Source\PSoC5/cyfitter_cfg.c **** 	/* Configure Bus/Master Clock based on settings from Clock DWR */
 235:.\Generated_Source\PSoC5/cyfitter_cfg.c **** 	CY_SET_XTND_REG16((void CYFAR *)(CYREG_CLKDIST_MSTR0), 0x0100u);
 236:.\Generated_Source\PSoC5/cyfitter_cfg.c **** 	CY_SET_XTND_REG8((void CYFAR *)(CYREG_CLKDIST_MSTR0), 0x07u);
 237:.\Generated_Source\PSoC5/cyfitter_cfg.c **** 	CY_SET_XTND_REG8((void CYFAR *)(CYREG_CLKDIST_BCFG0), 0x00u);
 238:.\Generated_Source\PSoC5/cyfitter_cfg.c **** 	CY_SET_XTND_REG8((void CYFAR *)(CYREG_CLKDIST_BCFG2), 0x48u);
 239:.\Generated_Source\PSoC5/cyfitter_cfg.c **** 	CY_SET_XTND_REG8((void CYFAR *)(CYREG_CLKDIST_MSTR0), 0x00u);
 240:.\Generated_Source\PSoC5/cyfitter_cfg.c **** 	CY_SET_XTND_REG8((void CYFAR *)(CYREG_CLKDIST_LD), 0x02u);
 241:.\Generated_Source\PSoC5/cyfitter_cfg.c **** 
 242:.\Generated_Source\PSoC5/cyfitter_cfg.c **** 	CY_SET_XTND_REG8((void CYFAR *)(CYREG_PM_ACT_CFG2), ((CY_GET_XTND_REG8((void CYFAR *)CYREG_PM_ACT_
 243:.\Generated_Source\PSoC5/cyfitter_cfg.c **** }
 244:.\Generated_Source\PSoC5/cyfitter_cfg.c **** 
 245:.\Generated_Source\PSoC5/cyfitter_cfg.c **** 
 246:.\Generated_Source\PSoC5/cyfitter_cfg.c **** /* Analog API Functions */
 247:.\Generated_Source\PSoC5/cyfitter_cfg.c **** 
 248:.\Generated_Source\PSoC5/cyfitter_cfg.c **** 
 249:.\Generated_Source\PSoC5/cyfitter_cfg.c **** /*******************************************************************************
 250:.\Generated_Source\PSoC5/cyfitter_cfg.c **** * Function Name: AnalogSetDefault
 251:.\Generated_Source\PSoC5/cyfitter_cfg.c **** ********************************************************************************
 252:.\Generated_Source\PSoC5/cyfitter_cfg.c **** *
 253:.\Generated_Source\PSoC5/cyfitter_cfg.c **** * Summary:
 254:.\Generated_Source\PSoC5/cyfitter_cfg.c **** *  Sets up the analog portions of the chip to default values based on chip
 255:.\Generated_Source\PSoC5/cyfitter_cfg.c **** *  configuration options from the project.
 256:.\Generated_Source\PSoC5/cyfitter_cfg.c **** *
 257:.\Generated_Source\PSoC5/cyfitter_cfg.c **** * Parameters:
 258:.\Generated_Source\PSoC5/cyfitter_cfg.c **** *  void
 259:.\Generated_Source\PSoC5/cyfitter_cfg.c **** *
 260:.\Generated_Source\PSoC5/cyfitter_cfg.c **** * Return:
 261:.\Generated_Source\PSoC5/cyfitter_cfg.c **** *  void
 262:.\Generated_Source\PSoC5/cyfitter_cfg.c **** *
 263:.\Generated_Source\PSoC5/cyfitter_cfg.c **** *******************************************************************************/
 264:.\Generated_Source\PSoC5/cyfitter_cfg.c **** static void AnalogSetDefault(void);
 265:.\Generated_Source\PSoC5/cyfitter_cfg.c **** static void AnalogSetDefault(void)
 266:.\Generated_Source\PSoC5/cyfitter_cfg.c **** {
 118              		.loc 1 266 0
 119              		.cfi_startproc
 120              		@ args = 0, pretend = 0, frame = 0
 121              		@ frame_needed = 0, uses_anonymous_args = 0
 122              		@ link register save eliminated.
 123 0000 70B4     		push	{r4, r5, r6}
 124              		.cfi_def_cfa_offset 12
 125              		.cfi_offset 4, -12
 126              		.cfi_offset 5, -8
 127              		.cfi_offset 6, -4
 267:.\Generated_Source\PSoC5/cyfitter_cfg.c **** 	uint8 bg_xover_inl_trim = CY_GET_XTND_REG8((void CYFAR *)(CYREG_FLSHID_MFG_CFG_BG_XOVER_INL_TRIM +
 128              		.loc 1 267 0
 129 0002 174B     		ldr	r3, .L9
ARM GAS  C:\Users\Digi-Key\AppData\Local\Temp\ccZDdc1G.s 			page 8


 130 0004 1978     		ldrb	r1, [r3]	@ zero_extendqisi2
 131 0006 C9B2     		uxtb	r1, r1
 132              	.LVL12:
 268:.\Generated_Source\PSoC5/cyfitter_cfg.c **** 	uint8 cr4 = CY_GET_XTND_REG8((void CYFAR *)(CYREG_RESET_CR4));
 133              		.loc 1 268 0
 134 0008 164B     		ldr	r3, .L9+4
 135 000a 1878     		ldrb	r0, [r3]	@ zero_extendqisi2
 136 000c C0B2     		uxtb	r0, r0
 137              	.LVL13:
 269:.\Generated_Source\PSoC5/cyfitter_cfg.c **** 	uint8 cr5 = CY_GET_XTND_REG8((void CYFAR *)(CYREG_RESET_CR5));
 138              		.loc 1 269 0
 139 000e 164A     		ldr	r2, .L9+8
 140 0010 1478     		ldrb	r4, [r2]	@ zero_extendqisi2
 141 0012 E4B2     		uxtb	r4, r4
 142              	.LVL14:
 270:.\Generated_Source\PSoC5/cyfitter_cfg.c **** 	CY_SET_XTND_REG8((void CYFAR *)(CYREG_BG_DFT0), (bg_xover_inl_trim & 0x07u));
 143              		.loc 1 270 0
 144 0014 01F00706 		and	r6, r1, #7
 145 0018 144D     		ldr	r5, .L9+12
 146 001a 2E70     		strb	r6, [r5]
 271:.\Generated_Source\PSoC5/cyfitter_cfg.c **** 	CY_SET_XTND_REG8((void CYFAR *)(CYREG_BG_DFT1), ((bg_xover_inl_trim >> 4) & 0x0Fu));
 147              		.loc 1 271 0
 148 001c 0909     		lsrs	r1, r1, #4
 149              	.LVL15:
 150 001e 0135     		adds	r5, r5, #1
 151 0020 2970     		strb	r1, [r5]
 272:.\Generated_Source\PSoC5/cyfitter_cfg.c **** 	/* Disable PRES while setting up SAR voltage reference */
 273:.\Generated_Source\PSoC5/cyfitter_cfg.c **** 	CY_SET_XTND_REG8((void CYFAR *)(CYREG_RESET_CR4), (cr4 | 0x03u));
 152              		.loc 1 273 0
 153 0022 40F00301 		orr	r1, r0, #3
 154 0026 1970     		strb	r1, [r3]
 274:.\Generated_Source\PSoC5/cyfitter_cfg.c **** 	CY_SET_XTND_REG8((void CYFAR *)(CYREG_RESET_CR5), (cr5 | 0x03u));
 155              		.loc 1 274 0
 156 0028 44F00301 		orr	r1, r4, #3
 157 002c 1170     		strb	r1, [r2]
 275:.\Generated_Source\PSoC5/cyfitter_cfg.c **** 	CY_SET_XTND_REG8((void CYFAR *)CYREG_PRT2_AG, 0x08u);
 158              		.loc 1 275 0
 159 002e 0821     		movs	r1, #8
 160 0030 A5F24275 		subw	r5, r5, #1858
 161 0034 2970     		strb	r1, [r5]
 276:.\Generated_Source\PSoC5/cyfitter_cfg.c **** 	CY_SET_XTND_REG8((void CYFAR *)CYREG_SAR1_CSR1, 0x80u);
 162              		.loc 1 276 0
 163 0036 8026     		movs	r6, #128
 164 0038 05F2DC75 		addw	r5, r5, #2012
 165 003c 2E70     		strb	r6, [r5]
 277:.\Generated_Source\PSoC5/cyfitter_cfg.c **** 	CY_SET_XTND_REG8((void CYFAR *)CYREG_SAR1_SW0, 0x08u);
 166              		.loc 1 277 0
 167 003e 05F21F25 		addw	r5, r5, #543
 168 0042 2970     		strb	r1, [r5]
 278:.\Generated_Source\PSoC5/cyfitter_cfg.c **** 	CY_SET_XTND_REG8((void CYFAR *)CYREG_SAR1_SW3, 0x20u);
 169              		.loc 1 278 0
 170 0044 2026     		movs	r6, #32
 171 0046 0335     		adds	r5, r5, #3
 172 0048 2E70     		strb	r6, [r5]
 279:.\Generated_Source\PSoC5/cyfitter_cfg.c **** 	CY_SET_XTND_REG8((void CYFAR *)CYREG_BUS_SW0, 0x08u);
 173              		.loc 1 279 0
 174 004a 2D35     		adds	r5, r5, #45
ARM GAS  C:\Users\Digi-Key\AppData\Local\Temp\ccZDdc1G.s 			page 9


 175 004c 2970     		strb	r1, [r5]
 280:.\Generated_Source\PSoC5/cyfitter_cfg.c **** 	CY_SET_XTND_REG8((void CYFAR *)(CYREG_RESET_CR5), (cr5));
 176              		.loc 1 280 0
 177 004e 1470     		strb	r4, [r2]
 281:.\Generated_Source\PSoC5/cyfitter_cfg.c **** 	CY_SET_XTND_REG8((void CYFAR *)(CYREG_RESET_CR4), (cr4));
 178              		.loc 1 281 0
 179 0050 1870     		strb	r0, [r3]
 282:.\Generated_Source\PSoC5/cyfitter_cfg.c **** 	CY_SET_XTND_REG8((void CYFAR *)CYREG_PUMP_CR0, 0x44u);
 180              		.loc 1 282 0
 181 0052 4422     		movs	r2, #68
 182 0054 03F58B53 		add	r3, r3, #4448
 183 0058 1E33     		adds	r3, r3, #30
 184 005a 1A70     		strb	r2, [r3]
 283:.\Generated_Source\PSoC5/cyfitter_cfg.c **** }
 185              		.loc 1 283 0
 186 005c 70BC     		pop	{r4, r5, r6}
 187              	.LVL16:
 188 005e 7047     		bx	lr
 189              	.L10:
 190              		.align	2
 191              	.L9:
 192 0060 CF010049 		.word	1224737231
 193 0064 F8460040 		.word	1073759992
 194 0068 F9460040 		.word	1073759993
 195 006c 6E580040 		.word	1073764462
 196              		.cfi_endproc
 197              	.LFE6:
 198              		.size	AnalogSetDefault, .-AnalogSetDefault
 199              		.section	.text.CYMEMZERO,"ax",%progbits
 200              		.align	2
 201              		.thumb
 202              		.thumb_func
 203              		.type	CYMEMZERO, %function
 204              	CYMEMZERO:
 205              	.LFB0:
  61:.\Generated_Source\PSoC5/cyfitter_cfg.c **** {
 206              		.loc 1 61 0
 207              		.cfi_startproc
 208              		@ args = 0, pretend = 0, frame = 0
 209              		@ frame_needed = 0, uses_anonymous_args = 0
 210              	.LVL17:
 211 0000 08B5     		push	{r3, lr}
 212              		.cfi_def_cfa_offset 8
 213              		.cfi_offset 3, -8
 214              		.cfi_offset 14, -4
 215 0002 0A46     		mov	r2, r1
  62:.\Generated_Source\PSoC5/cyfitter_cfg.c **** 	(void)memset(s, 0, n);
 216              		.loc 1 62 0
 217 0004 0021     		movs	r1, #0
 218              	.LVL18:
 219 0006 FFF7FEFF 		bl	memset
 220              	.LVL19:
 221 000a 08BD     		pop	{r3, pc}
 222              		.cfi_endproc
 223              	.LFE0:
 224              		.size	CYMEMZERO, .-CYMEMZERO
 225              		.section	.text.ClockSetup,"ax",%progbits
ARM GAS  C:\Users\Digi-Key\AppData\Local\Temp\ccZDdc1G.s 			page 10


 226              		.align	2
 227              		.thumb
 228              		.thumb_func
 229              		.type	ClockSetup, %function
 230              	ClockSetup:
 231              	.LFB5:
 199:.\Generated_Source\PSoC5/cyfitter_cfg.c **** {
 232              		.loc 1 199 0
 233              		.cfi_startproc
 234              		@ args = 0, pretend = 0, frame = 0
 235              		@ frame_needed = 0, uses_anonymous_args = 0
 236 0000 F8B5     		push	{r3, r4, r5, r6, r7, lr}
 237              		.cfi_def_cfa_offset 24
 238              		.cfi_offset 3, -24
 239              		.cfi_offset 4, -20
 240              		.cfi_offset 5, -16
 241              		.cfi_offset 6, -12
 242              		.cfi_offset 7, -8
 243              		.cfi_offset 14, -4
 205:.\Generated_Source\PSoC5/cyfitter_cfg.c **** 	CY_SET_XTND_REG16((void CYFAR *)(CYREG_CLKDIST_DCFG0_CFG0), 0x0001u);
 244              		.loc 1 205 0
 245 0002 0122     		movs	r2, #1
 246 0004 274B     		ldr	r3, .L17
 247 0006 1A80     		strh	r2, [r3]	@ movhi
 206:.\Generated_Source\PSoC5/cyfitter_cfg.c **** 	CY_SET_XTND_REG8((void CYFAR *)(CYREG_CLKDIST_DCFG0_CFG0 + 0x2u), 0x18u);
 248              		.loc 1 206 0
 249 0008 1823     		movs	r3, #24
 250 000a 274A     		ldr	r2, .L17+4
 251 000c 1370     		strb	r3, [r2]
 207:.\Generated_Source\PSoC5/cyfitter_cfg.c **** 	CY_SET_XTND_REG16((void CYFAR *)(CYREG_CLKDIST_DCFG1_CFG0), 0x0019u);
 252              		.loc 1 207 0
 253 000e 1924     		movs	r4, #25
 254 0010 0232     		adds	r2, r2, #2
 255 0012 1480     		strh	r4, [r2]	@ movhi
 208:.\Generated_Source\PSoC5/cyfitter_cfg.c **** 	CY_SET_XTND_REG8((void CYFAR *)(CYREG_CLKDIST_DCFG1_CFG0 + 0x2u), 0x18u);
 256              		.loc 1 208 0
 257 0014 0232     		adds	r2, r2, #2
 258 0016 1370     		strb	r3, [r2]
 211:.\Generated_Source\PSoC5/cyfitter_cfg.c **** 	CY_SET_XTND_REG8((void CYFAR *)(CYREG_SLOWCLK_ILO_CR0), 0x02u);
 259              		.loc 1 211 0
 260 0018 0222     		movs	r2, #2
 261 001a 244B     		ldr	r3, .L17+8
 262 001c 1A70     		strb	r2, [r3]
 212:.\Generated_Source\PSoC5/cyfitter_cfg.c **** 	CY_SET_XTND_REG8((void CYFAR *)(CYREG_CLKDIST_CR), 0x08u);
 263              		.loc 1 212 0
 264 001e 0823     		movs	r3, #8
 265 0020 4FF04022 		mov	r2, #1073758208
 266 0024 1370     		strb	r3, [r2]
 215:.\Generated_Source\PSoC5/cyfitter_cfg.c **** 	CY_SET_XTND_REG8((void CYFAR *)(CYREG_FASTCLK_IMO_CR), 0x03u);
 267              		.loc 1 215 0
 268 0026 0321     		movs	r1, #3
 269 0028 02F50072 		add	r2, r2, #512
 270 002c 1170     		strb	r1, [r2]
 216:.\Generated_Source\PSoC5/cyfitter_cfg.c **** 	CY_SET_XTND_REG8((void CYFAR *)(CYREG_IMO_TR1), (CY_GET_XTND_REG8((void CYFAR *)CYREG_FLSHID_CUST_
 271              		.loc 1 216 0
 272 002e 204A     		ldr	r2, .L17+12
 273 0030 1178     		ldrb	r1, [r2]	@ zero_extendqisi2
ARM GAS  C:\Users\Digi-Key\AppData\Local\Temp\ccZDdc1G.s 			page 11


 274 0032 C9B2     		uxtb	r1, r1
 275 0034 1F4A     		ldr	r2, .L17+16
 276 0036 1170     		strb	r1, [r2]
 219:.\Generated_Source\PSoC5/cyfitter_cfg.c **** 	CY_SET_XTND_REG16((void CYFAR *)(CYREG_FASTCLK_PLL_P), 0x0008u);
 277              		.loc 1 219 0
 278 0038 A2F27F42 		subw	r2, r2, #1151
 279 003c 1380     		strh	r3, [r2]	@ movhi
 220:.\Generated_Source\PSoC5/cyfitter_cfg.c **** 	CY_SET_XTND_REG16((void CYFAR *)(CYREG_FASTCLK_PLL_CFG0), 0x1251u);
 280              		.loc 1 220 0
 281 003e 41F25122 		movw	r2, #4689
 282 0042 1D4B     		ldr	r3, .L17+20
 283 0044 1A80     		strh	r2, [r3]	@ movhi
 284              	.LVL20:
 222:.\Generated_Source\PSoC5/cyfitter_cfg.c **** 	pllLock = 0u;
 285              		.loc 1 222 0
 286 0046 0025     		movs	r5, #0
 225:.\Generated_Source\PSoC5/cyfitter_cfg.c **** 		pllLock = 0x03u & ((uint8)((uint8)pllLock << 1) | ((CY_GET_XTND_REG8((void CYFAR *)CYREG_FASTCLK_
 287              		.loc 1 225 0
 288 0048 1C4F     		ldr	r7, .L17+24
 226:.\Generated_Source\PSoC5/cyfitter_cfg.c **** 		CyDelayCycles(10u * 48u); /* Delay 10us based on 48MHz clock */
 289              		.loc 1 226 0
 290 004a 4FF4F076 		mov	r6, #480
 223:.\Generated_Source\PSoC5/cyfitter_cfg.c **** 	for (timeout = 250u / 10u; (timeout > 0u) && (pllLock != 0x03u); timeout--)
 291              		.loc 1 223 0
 292 004e 0AE0     		b	.L13
 293              	.LVL21:
 294              	.L15:
 225:.\Generated_Source\PSoC5/cyfitter_cfg.c **** 		pllLock = 0x03u & ((uint8)((uint8)pllLock << 1) | ((CY_GET_XTND_REG8((void CYFAR *)CYREG_FASTCLK_
 295              		.loc 1 225 0 discriminator 1
 296 0050 3B78     		ldrb	r3, [r7]	@ zero_extendqisi2
 297 0052 03F00103 		and	r3, r3, #1
 298 0056 43EA4505 		orr	r5, r3, r5, lsl #1
 299              	.LVL22:
 300 005a 05F00305 		and	r5, r5, #3
 301              	.LVL23:
 226:.\Generated_Source\PSoC5/cyfitter_cfg.c **** 		CyDelayCycles(10u * 48u); /* Delay 10us based on 48MHz clock */
 302              		.loc 1 226 0 discriminator 1
 303 005e 3046     		mov	r0, r6
 304 0060 FFF7FEFF 		bl	CyDelayCycles
 305              	.LVL24:
 223:.\Generated_Source\PSoC5/cyfitter_cfg.c **** 	for (timeout = 250u / 10u; (timeout > 0u) && (pllLock != 0x03u); timeout--)
 306              		.loc 1 223 0 discriminator 1
 307 0064 013C     		subs	r4, r4, #1
 308              	.LVL25:
 309              	.L13:
 310 0066 0CB1     		cbz	r4, .L14
 223:.\Generated_Source\PSoC5/cyfitter_cfg.c **** 	for (timeout = 250u / 10u; (timeout > 0u) && (pllLock != 0x03u); timeout--)
 311              		.loc 1 223 0 is_stmt 0 discriminator 2
 312 0068 032D     		cmp	r5, #3
 313 006a F1D1     		bne	.L15
 314              	.L14:
 229:.\Generated_Source\PSoC5/cyfitter_cfg.c **** 	if (timeout == 0u)
 315              		.loc 1 229 0 is_stmt 1
 316 006c 14B9     		cbnz	r4, .L16
 231:.\Generated_Source\PSoC5/cyfitter_cfg.c **** 		CyClockStartupError(CYCLOCKSTART_PLL_ERROR);
 317              		.loc 1 231 0
 318 006e 0320     		movs	r0, #3
ARM GAS  C:\Users\Digi-Key\AppData\Local\Temp\ccZDdc1G.s 			page 12


 319 0070 FFF7FEFF 		bl	CyClockStartupError
 320              	.LVL26:
 321              	.L16:
 235:.\Generated_Source\PSoC5/cyfitter_cfg.c **** 	CY_SET_XTND_REG16((void CYFAR *)(CYREG_CLKDIST_MSTR0), 0x0100u);
 322              		.loc 1 235 0
 323 0074 124B     		ldr	r3, .L17+28
 324 0076 4FF48072 		mov	r2, #256
 325 007a 1A80     		strh	r2, [r3]	@ movhi
 236:.\Generated_Source\PSoC5/cyfitter_cfg.c **** 	CY_SET_XTND_REG8((void CYFAR *)(CYREG_CLKDIST_MSTR0), 0x07u);
 326              		.loc 1 236 0
 327 007c 0722     		movs	r2, #7
 328 007e 1A70     		strb	r2, [r3]
 237:.\Generated_Source\PSoC5/cyfitter_cfg.c **** 	CY_SET_XTND_REG8((void CYFAR *)(CYREG_CLKDIST_BCFG0), 0x00u);
 329              		.loc 1 237 0
 330 0080 0022     		movs	r2, #0
 331 0082 1049     		ldr	r1, .L17+32
 332 0084 0A70     		strb	r2, [r1]
 238:.\Generated_Source\PSoC5/cyfitter_cfg.c **** 	CY_SET_XTND_REG8((void CYFAR *)(CYREG_CLKDIST_BCFG2), 0x48u);
 333              		.loc 1 238 0
 334 0086 4820     		movs	r0, #72
 335 0088 0231     		adds	r1, r1, #2
 336 008a 0870     		strb	r0, [r1]
 239:.\Generated_Source\PSoC5/cyfitter_cfg.c **** 	CY_SET_XTND_REG8((void CYFAR *)(CYREG_CLKDIST_MSTR0), 0x00u);
 337              		.loc 1 239 0
 338 008c 1A70     		strb	r2, [r3]
 240:.\Generated_Source\PSoC5/cyfitter_cfg.c **** 	CY_SET_XTND_REG8((void CYFAR *)(CYREG_CLKDIST_LD), 0x02u);
 339              		.loc 1 240 0
 340 008e 0222     		movs	r2, #2
 341 0090 033B     		subs	r3, r3, #3
 342 0092 1A70     		strb	r2, [r3]
 242:.\Generated_Source\PSoC5/cyfitter_cfg.c **** 	CY_SET_XTND_REG8((void CYFAR *)(CYREG_PM_ACT_CFG2), ((CY_GET_XTND_REG8((void CYFAR *)CYREG_PM_ACT_
 343              		.loc 1 242 0
 344 0094 03F2A133 		addw	r3, r3, #929
 345 0098 1A78     		ldrb	r2, [r3]	@ zero_extendqisi2
 346 009a 42F00302 		orr	r2, r2, #3
 347 009e 1A70     		strb	r2, [r3]
 348 00a0 F8BD     		pop	{r3, r4, r5, r6, r7, pc}
 349              	.LVL27:
 350              	.L18:
 351 00a2 00BF     		.align	2
 352              	.L17:
 353 00a4 80400040 		.word	1073758336
 354 00a8 82400040 		.word	1073758338
 355 00ac 00430040 		.word	1073758976
 356 00b0 08010049 		.word	1224737032
 357 00b4 A1460040 		.word	1073759905
 358 00b8 20420040 		.word	1073758752
 359 00bc 25420040 		.word	1073758757
 360 00c0 04400040 		.word	1073758212
 361 00c4 06400040 		.word	1073758214
 362              		.cfi_endproc
 363              	.LFE5:
 364              		.size	ClockSetup, .-ClockSetup
 365              		.section	.text.CYCONFIGCPY,"ax",%progbits
 366              		.align	2
 367              		.thumb
 368              		.thumb_func
ARM GAS  C:\Users\Digi-Key\AppData\Local\Temp\ccZDdc1G.s 			page 13


 369              		.type	CYCONFIGCPY, %function
 370              	CYCONFIGCPY:
 371              	.LFB1:
  68:.\Generated_Source\PSoC5/cyfitter_cfg.c **** {
 372              		.loc 1 68 0
 373              		.cfi_startproc
 374              		@ args = 0, pretend = 0, frame = 0
 375              		@ frame_needed = 0, uses_anonymous_args = 0
 376              	.LVL28:
 377 0000 08B5     		push	{r3, lr}
 378              		.cfi_def_cfa_offset 8
 379              		.cfi_offset 3, -8
 380              		.cfi_offset 14, -4
  69:.\Generated_Source\PSoC5/cyfitter_cfg.c **** 	(void)memcpy(dest, src, n);
 381              		.loc 1 69 0
 382 0002 FFF7FEFF 		bl	memcpy
 383              	.LVL29:
 384 0006 08BD     		pop	{r3, pc}
 385              		.cfi_endproc
 386              	.LFE1:
 387              		.size	CYCONFIGCPY, .-CYCONFIGCPY
 388              		.section	.text.SetAnalogRoutingPumps,"ax",%progbits
 389              		.align	2
 390              		.global	SetAnalogRoutingPumps
 391              		.thumb
 392              		.thumb_func
 393              		.type	SetAnalogRoutingPumps, %function
 394              	SetAnalogRoutingPumps:
 395              	.LFB7:
 284:.\Generated_Source\PSoC5/cyfitter_cfg.c **** 
 285:.\Generated_Source\PSoC5/cyfitter_cfg.c **** 
 286:.\Generated_Source\PSoC5/cyfitter_cfg.c **** /*******************************************************************************
 287:.\Generated_Source\PSoC5/cyfitter_cfg.c **** * Function Name: SetAnalogRoutingPumps
 288:.\Generated_Source\PSoC5/cyfitter_cfg.c **** ********************************************************************************
 289:.\Generated_Source\PSoC5/cyfitter_cfg.c **** *
 290:.\Generated_Source\PSoC5/cyfitter_cfg.c **** * Summary:
 291:.\Generated_Source\PSoC5/cyfitter_cfg.c **** * Enables or disables the analog pumps feeding analog routing switches.
 292:.\Generated_Source\PSoC5/cyfitter_cfg.c **** * Intended to be called at startup, based on the Vdda system configuration;
 293:.\Generated_Source\PSoC5/cyfitter_cfg.c **** * may be called during operation when the user informs us that the Vdda voltage
 294:.\Generated_Source\PSoC5/cyfitter_cfg.c **** * crossed the pump threshold.
 295:.\Generated_Source\PSoC5/cyfitter_cfg.c **** *
 296:.\Generated_Source\PSoC5/cyfitter_cfg.c **** * Parameters:
 297:.\Generated_Source\PSoC5/cyfitter_cfg.c **** *  enabled - 1 to enable the pumps, 0 to disable the pumps
 298:.\Generated_Source\PSoC5/cyfitter_cfg.c **** *
 299:.\Generated_Source\PSoC5/cyfitter_cfg.c **** * Return:
 300:.\Generated_Source\PSoC5/cyfitter_cfg.c **** *  void
 301:.\Generated_Source\PSoC5/cyfitter_cfg.c **** *
 302:.\Generated_Source\PSoC5/cyfitter_cfg.c **** *******************************************************************************/
 303:.\Generated_Source\PSoC5/cyfitter_cfg.c **** void SetAnalogRoutingPumps(uint8 enabled)
 304:.\Generated_Source\PSoC5/cyfitter_cfg.c **** {
 396              		.loc 1 304 0
 397              		.cfi_startproc
 398              		@ args = 0, pretend = 0, frame = 0
 399              		@ frame_needed = 0, uses_anonymous_args = 0
 400              		@ link register save eliminated.
 401              	.LVL30:
 305:.\Generated_Source\PSoC5/cyfitter_cfg.c **** 	uint8 regValue = CY_GET_XTND_REG8((void CYFAR *)CYREG_PUMP_CR0);
ARM GAS  C:\Users\Digi-Key\AppData\Local\Temp\ccZDdc1G.s 			page 14


 402              		.loc 1 305 0
 403 0000 054B     		ldr	r3, .L23
 404 0002 1B78     		ldrb	r3, [r3]	@ zero_extendqisi2
 405 0004 DBB2     		uxtb	r3, r3
 406              	.LVL31:
 306:.\Generated_Source\PSoC5/cyfitter_cfg.c **** 	if (enabled != 0u)
 407              		.loc 1 306 0
 408 0006 10B1     		cbz	r0, .L21
 307:.\Generated_Source\PSoC5/cyfitter_cfg.c **** 	{
 308:.\Generated_Source\PSoC5/cyfitter_cfg.c **** 		regValue |= 0x22u;
 409              		.loc 1 308 0
 410 0008 43F02203 		orr	r3, r3, #34
 411              	.LVL32:
 412 000c 01E0     		b	.L22
 413              	.L21:
 309:.\Generated_Source\PSoC5/cyfitter_cfg.c **** 	}
 310:.\Generated_Source\PSoC5/cyfitter_cfg.c **** 	else
 311:.\Generated_Source\PSoC5/cyfitter_cfg.c **** 	{
 312:.\Generated_Source\PSoC5/cyfitter_cfg.c **** 		regValue &= (uint8)~0x22u;
 414              		.loc 1 312 0
 415 000e 03F0DD03 		and	r3, r3, #221
 416              	.LVL33:
 417              	.L22:
 313:.\Generated_Source\PSoC5/cyfitter_cfg.c **** 	}
 314:.\Generated_Source\PSoC5/cyfitter_cfg.c **** 	CY_SET_XTND_REG8((void CYFAR *)CYREG_PUMP_CR0, regValue);
 418              		.loc 1 314 0
 419 0012 014A     		ldr	r2, .L23
 420 0014 1370     		strb	r3, [r2]
 421 0016 7047     		bx	lr
 422              	.L24:
 423              		.align	2
 424              	.L23:
 425 0018 76580040 		.word	1073764470
 426              		.cfi_endproc
 427              	.LFE7:
 428              		.size	SetAnalogRoutingPumps, .-SetAnalogRoutingPumps
 429              		.section	.text.cyfitter_cfg,"ax",%progbits
 430              		.align	2
 431              		.global	cyfitter_cfg
 432              		.thumb
 433              		.thumb_func
 434              		.type	cyfitter_cfg, %function
 435              	cyfitter_cfg:
 436              	.LFB8:
 315:.\Generated_Source\PSoC5/cyfitter_cfg.c **** }
 316:.\Generated_Source\PSoC5/cyfitter_cfg.c **** 
 317:.\Generated_Source\PSoC5/cyfitter_cfg.c **** #define CY_AMUX_UNUSED CYREG_BOOST_SR
 318:.\Generated_Source\PSoC5/cyfitter_cfg.c **** 
 319:.\Generated_Source\PSoC5/cyfitter_cfg.c **** 
 320:.\Generated_Source\PSoC5/cyfitter_cfg.c **** /*******************************************************************************
 321:.\Generated_Source\PSoC5/cyfitter_cfg.c **** * Function Name: cyfitter_cfg
 322:.\Generated_Source\PSoC5/cyfitter_cfg.c **** ********************************************************************************
 323:.\Generated_Source\PSoC5/cyfitter_cfg.c **** * Summary:
 324:.\Generated_Source\PSoC5/cyfitter_cfg.c **** *  This function is called by the start-up code for the selected device. It
 325:.\Generated_Source\PSoC5/cyfitter_cfg.c **** *  performs all of the necessary device configuration based on the design
 326:.\Generated_Source\PSoC5/cyfitter_cfg.c **** *  settings.  This includes settings from the Design Wide Resources (DWR) such
 327:.\Generated_Source\PSoC5/cyfitter_cfg.c **** *  as Clocks and Pins as well as any component configuration that is necessary.
ARM GAS  C:\Users\Digi-Key\AppData\Local\Temp\ccZDdc1G.s 			page 15


 328:.\Generated_Source\PSoC5/cyfitter_cfg.c **** *
 329:.\Generated_Source\PSoC5/cyfitter_cfg.c **** * Parameters:  
 330:.\Generated_Source\PSoC5/cyfitter_cfg.c **** *   void
 331:.\Generated_Source\PSoC5/cyfitter_cfg.c **** *
 332:.\Generated_Source\PSoC5/cyfitter_cfg.c **** * Return:
 333:.\Generated_Source\PSoC5/cyfitter_cfg.c **** *   void
 334:.\Generated_Source\PSoC5/cyfitter_cfg.c **** *
 335:.\Generated_Source\PSoC5/cyfitter_cfg.c **** *******************************************************************************/
 336:.\Generated_Source\PSoC5/cyfitter_cfg.c **** 
 337:.\Generated_Source\PSoC5/cyfitter_cfg.c **** void cyfitter_cfg(void)
 338:.\Generated_Source\PSoC5/cyfitter_cfg.c **** {
 437              		.loc 1 338 0
 438              		.cfi_startproc
 439              		@ args = 0, pretend = 0, frame = 0
 440              		@ frame_needed = 0, uses_anonymous_args = 0
 441 0000 38B5     		push	{r3, r4, r5, lr}
 442              		.cfi_def_cfa_offset 16
 443              		.cfi_offset 3, -16
 444              		.cfi_offset 4, -12
 445              		.cfi_offset 5, -8
 446              		.cfi_offset 14, -4
 339:.\Generated_Source\PSoC5/cyfitter_cfg.c **** #ifdef CYGlobalIntDisable
 340:.\Generated_Source\PSoC5/cyfitter_cfg.c **** 	/* Disable interrupts by default. Let user enable if/when they want. */
 341:.\Generated_Source\PSoC5/cyfitter_cfg.c **** 	CYGlobalIntDisable
 447              		.loc 1 341 0
 448              	@ 341 ".\Generated_Source\PSoC5\cyfitter_cfg.c" 1
 449 0002 72B6     		CPSID   i
 450              	@ 0 "" 2
 342:.\Generated_Source\PSoC5/cyfitter_cfg.c **** #endif
 343:.\Generated_Source\PSoC5/cyfitter_cfg.c **** 
 344:.\Generated_Source\PSoC5/cyfitter_cfg.c **** 	/* Enable/Disable Debug functionality based on settings from System DWR */
 345:.\Generated_Source\PSoC5/cyfitter_cfg.c **** 	CY_SET_XTND_REG8((void CYFAR *)CYREG_MLOGIC_DEBUG, (CY_GET_XTND_REG8((void CYFAR *)CYREG_MLOGIC_DE
 451              		.loc 1 345 0
 452              		.thumb
 453 0004 314B     		ldr	r3, .L30
 454 0006 1A78     		ldrb	r2, [r3]	@ zero_extendqisi2
 455 0008 42F00402 		orr	r2, r2, #4
 456 000c 1A70     		strb	r2, [r3]
 457              	.LVL34:
 458              	.LBB3:
 346:.\Generated_Source\PSoC5/cyfitter_cfg.c **** 
 347:.\Generated_Source\PSoC5/cyfitter_cfg.c **** 	{
 348:.\Generated_Source\PSoC5/cyfitter_cfg.c **** 
 349:.\Generated_Source\PSoC5/cyfitter_cfg.c **** 		CYPACKED typedef struct {
 350:.\Generated_Source\PSoC5/cyfitter_cfg.c **** 			void CYFAR *address;
 351:.\Generated_Source\PSoC5/cyfitter_cfg.c **** 			uint16 size;
 352:.\Generated_Source\PSoC5/cyfitter_cfg.c **** 		} CYPACKED_ATTR cfg_memset_t;
 353:.\Generated_Source\PSoC5/cyfitter_cfg.c **** 
 354:.\Generated_Source\PSoC5/cyfitter_cfg.c **** 
 355:.\Generated_Source\PSoC5/cyfitter_cfg.c **** 		CYPACKED typedef struct {
 356:.\Generated_Source\PSoC5/cyfitter_cfg.c **** 			void CYFAR *dest;
 357:.\Generated_Source\PSoC5/cyfitter_cfg.c **** 			const void CYFAR *src;
 358:.\Generated_Source\PSoC5/cyfitter_cfg.c **** 			uint16 size;
 359:.\Generated_Source\PSoC5/cyfitter_cfg.c **** 		} CYPACKED_ATTR cfg_memcpy_t;
 360:.\Generated_Source\PSoC5/cyfitter_cfg.c **** 
 361:.\Generated_Source\PSoC5/cyfitter_cfg.c **** 		static const cfg_memset_t CYCODE cfg_memset_list [] = {
 362:.\Generated_Source\PSoC5/cyfitter_cfg.c **** 			/* address, size */
ARM GAS  C:\Users\Digi-Key\AppData\Local\Temp\ccZDdc1G.s 			page 16


 363:.\Generated_Source\PSoC5/cyfitter_cfg.c **** 			{(void CYFAR *)(CYREG_PRT1_DR), 16u},
 364:.\Generated_Source\PSoC5/cyfitter_cfg.c **** 			{(void CYFAR *)(CYREG_PRT3_DR), 64u},
 365:.\Generated_Source\PSoC5/cyfitter_cfg.c **** 			{(void CYFAR *)(CYREG_PRT15_DR), 16u},
 366:.\Generated_Source\PSoC5/cyfitter_cfg.c **** 			{(void CYFAR *)(CYDEV_UCFG_B0_P0_U0_BASE), 4096u},
 367:.\Generated_Source\PSoC5/cyfitter_cfg.c **** 			{(void CYFAR *)(CYDEV_UCFG_B1_P2_U0_BASE), 2048u},
 368:.\Generated_Source\PSoC5/cyfitter_cfg.c **** 			{(void CYFAR *)(CYDEV_UCFG_DSI0_BASE), 2560u},
 369:.\Generated_Source\PSoC5/cyfitter_cfg.c **** 			{(void CYFAR *)(CYDEV_UCFG_DSI12_BASE), 512u},
 370:.\Generated_Source\PSoC5/cyfitter_cfg.c **** 			{(void CYFAR *)(CYREG_BCTL0_MDCLK_EN), 32u},
 371:.\Generated_Source\PSoC5/cyfitter_cfg.c **** 		};
 372:.\Generated_Source\PSoC5/cyfitter_cfg.c **** 
 373:.\Generated_Source\PSoC5/cyfitter_cfg.c **** 		static const cfg_memcpy_t CYCODE cfg_memcpy_list [] = {
 374:.\Generated_Source\PSoC5/cyfitter_cfg.c **** 			/* dest, src, size */
 375:.\Generated_Source\PSoC5/cyfitter_cfg.c **** 			{(void CYFAR *)(CYDEV_PRTDSI_PRT12_BASE), BS_IOPORT_7_VAL, 6u},
 376:.\Generated_Source\PSoC5/cyfitter_cfg.c **** 		};
 377:.\Generated_Source\PSoC5/cyfitter_cfg.c **** 
 378:.\Generated_Source\PSoC5/cyfitter_cfg.c **** 		uint8 CYDATA i;
 379:.\Generated_Source\PSoC5/cyfitter_cfg.c **** 
 380:.\Generated_Source\PSoC5/cyfitter_cfg.c **** 		/* Zero out critical memory blocks before beginning configuration */
 381:.\Generated_Source\PSoC5/cyfitter_cfg.c **** 		for (i = 0u; i < (sizeof(cfg_memset_list)/sizeof(cfg_memset_list[0])); i++)
 459              		.loc 1 381 0
 460 000e 0024     		movs	r4, #0
 461              	.LBB4:
 382:.\Generated_Source\PSoC5/cyfitter_cfg.c **** 		{
 383:.\Generated_Source\PSoC5/cyfitter_cfg.c **** 			const cfg_memset_t CYCODE * CYDATA ms = &cfg_memset_list[i];
 462              		.loc 1 383 0
 463 0010 2F4D     		ldr	r5, .L30+4
 464              	.LBE4:
 381:.\Generated_Source\PSoC5/cyfitter_cfg.c **** 		for (i = 0u; i < (sizeof(cfg_memset_list)/sizeof(cfg_memset_list[0])); i++)
 465              		.loc 1 381 0
 466 0012 09E0     		b	.L26
 467              	.LVL35:
 468              	.L27:
 469              	.LBB5:
 470              		.loc 1 383 0 discriminator 2
 471 0014 04EB4403 		add	r3, r4, r4, lsl #1
 472 0018 5B00     		lsls	r3, r3, #1
 473 001a 2B44     		add	r3, r3, r5
 474              	.LVL36:
 384:.\Generated_Source\PSoC5/cyfitter_cfg.c **** 			CYMEMZERO(ms->address, (size_t)(uint32)(ms->size));
 475              		.loc 1 384 0 discriminator 2
 476 001c 1868     		ldr	r0, [r3]	@ unaligned
 477 001e 9988     		ldrh	r1, [r3, #4]
 478 0020 FFF7FEFF 		bl	CYMEMZERO
 479              	.LVL37:
 480              	.LBE5:
 381:.\Generated_Source\PSoC5/cyfitter_cfg.c **** 		for (i = 0u; i < (sizeof(cfg_memset_list)/sizeof(cfg_memset_list[0])); i++)
 481              		.loc 1 381 0 discriminator 2
 482 0024 0134     		adds	r4, r4, #1
 483              	.LVL38:
 484 0026 E4B2     		uxtb	r4, r4
 485              	.LVL39:
 486              	.L26:
 381:.\Generated_Source\PSoC5/cyfitter_cfg.c **** 		for (i = 0u; i < (sizeof(cfg_memset_list)/sizeof(cfg_memset_list[0])); i++)
 487              		.loc 1 381 0 is_stmt 0 discriminator 1
 488 0028 072C     		cmp	r4, #7
 489 002a F3D9     		bls	.L27
 490 002c 0024     		movs	r4, #0
ARM GAS  C:\Users\Digi-Key\AppData\Local\Temp\ccZDdc1G.s 			page 17


 491              	.LVL40:
 492              	.LBB6:
 385:.\Generated_Source\PSoC5/cyfitter_cfg.c **** 		}
 386:.\Generated_Source\PSoC5/cyfitter_cfg.c **** 
 387:.\Generated_Source\PSoC5/cyfitter_cfg.c **** 		/* Copy device configuration data into registers */
 388:.\Generated_Source\PSoC5/cyfitter_cfg.c **** 		for (i = 0u; i < (sizeof(cfg_memcpy_list)/sizeof(cfg_memcpy_list[0])); i++)
 389:.\Generated_Source\PSoC5/cyfitter_cfg.c **** 		{
 390:.\Generated_Source\PSoC5/cyfitter_cfg.c **** 			const cfg_memcpy_t CYCODE * CYDATA mc = &cfg_memcpy_list[i];
 493              		.loc 1 390 0 is_stmt 1
 494 002e 294D     		ldr	r5, .L30+8
 495 0030 0AE0     		b	.L28
 496              	.LVL41:
 497              	.L29:
 498              		.loc 1 390 0 is_stmt 0 discriminator 2
 499 0032 04EB8403 		add	r3, r4, r4, lsl #2
 500 0036 5B00     		lsls	r3, r3, #1
 501 0038 2B44     		add	r3, r3, r5
 502              	.LVL42:
 391:.\Generated_Source\PSoC5/cyfitter_cfg.c **** 			void * CYDATA destPtr = mc->dest;
 392:.\Generated_Source\PSoC5/cyfitter_cfg.c **** 			const void * CYDATA srcPtr = mc->src;
 393:.\Generated_Source\PSoC5/cyfitter_cfg.c **** 			uint16 CYDATA numBytes = mc->size;
 394:.\Generated_Source\PSoC5/cyfitter_cfg.c **** 			CYCONFIGCPY(destPtr, srcPtr, numBytes);
 503              		.loc 1 394 0 is_stmt 1 discriminator 2
 504 003a 1868     		ldr	r0, [r3]	@ unaligned
 505              	.LVL43:
 506 003c 5968     		ldr	r1, [r3, #4]	@ unaligned
 507              	.LVL44:
 508 003e 1A89     		ldrh	r2, [r3, #8]
 509 0040 FFF7FEFF 		bl	CYCONFIGCPY
 510              	.LVL45:
 511              	.LBE6:
 388:.\Generated_Source\PSoC5/cyfitter_cfg.c **** 		for (i = 0u; i < (sizeof(cfg_memcpy_list)/sizeof(cfg_memcpy_list[0])); i++)
 512              		.loc 1 388 0 discriminator 2
 513 0044 0134     		adds	r4, r4, #1
 514              	.LVL46:
 515 0046 E4B2     		uxtb	r4, r4
 516              	.LVL47:
 517              	.L28:
 388:.\Generated_Source\PSoC5/cyfitter_cfg.c **** 		for (i = 0u; i < (sizeof(cfg_memcpy_list)/sizeof(cfg_memcpy_list[0])); i++)
 518              		.loc 1 388 0 is_stmt 0 discriminator 1
 519 0048 002C     		cmp	r4, #0
 520 004a F2D0     		beq	.L29
 395:.\Generated_Source\PSoC5/cyfitter_cfg.c **** 		}
 396:.\Generated_Source\PSoC5/cyfitter_cfg.c **** 
 397:.\Generated_Source\PSoC5/cyfitter_cfg.c **** 		cfg_write_bytes32(cy_cfg_addr_table, cy_cfg_data_table);
 521              		.loc 1 397 0 is_stmt 1
 522 004c 4FF09040 		mov	r0, #1207959552
 523 0050 2149     		ldr	r1, .L30+12
 524 0052 FFF7FEFF 		bl	cfg_write_bytes32
 525              	.LVL48:
 398:.\Generated_Source\PSoC5/cyfitter_cfg.c **** 
 399:.\Generated_Source\PSoC5/cyfitter_cfg.c **** 		/* Enable digital routing */
 400:.\Generated_Source\PSoC5/cyfitter_cfg.c **** 		CY_SET_XTND_REG8((void CYFAR *)CYREG_BCTL0_BANK_CTL, CY_GET_XTND_REG8((void CYFAR *)CYREG_BCTL0_B
 526              		.loc 1 400 0
 527 0056 214B     		ldr	r3, .L30+16
 528 0058 1A78     		ldrb	r2, [r3]	@ zero_extendqisi2
 529 005a 42F00202 		orr	r2, r2, #2
ARM GAS  C:\Users\Digi-Key\AppData\Local\Temp\ccZDdc1G.s 			page 18


 530 005e 1A70     		strb	r2, [r3]
 401:.\Generated_Source\PSoC5/cyfitter_cfg.c **** 		CY_SET_XTND_REG8((void CYFAR *)CYREG_BCTL1_BANK_CTL, CY_GET_XTND_REG8((void CYFAR *)CYREG_BCTL1_B
 531              		.loc 1 401 0
 532 0060 1033     		adds	r3, r3, #16
 533 0062 1A78     		ldrb	r2, [r3]	@ zero_extendqisi2
 534 0064 42F00202 		orr	r2, r2, #2
 535 0068 1A70     		strb	r2, [r3]
 402:.\Generated_Source\PSoC5/cyfitter_cfg.c **** 
 403:.\Generated_Source\PSoC5/cyfitter_cfg.c **** 		/* Enable UDB array */
 404:.\Generated_Source\PSoC5/cyfitter_cfg.c **** 		CY_SET_XTND_REG8((void CYFAR *)CYREG_PM_ACT_CFG0, CY_GET_XTND_REG8((void CYFAR *)CYREG_PM_ACT_CFG
 536              		.loc 1 404 0
 537 006a 1D4C     		ldr	r4, .L30+20
 538              	.LVL49:
 539 006c 2378     		ldrb	r3, [r4]	@ zero_extendqisi2
 540 006e 43F04003 		orr	r3, r3, #64
 541 0072 2370     		strb	r3, [r4]
 405:.\Generated_Source\PSoC5/cyfitter_cfg.c **** 		CY_SET_XTND_REG8((void CYFAR *)CYREG_PM_AVAIL_CR2, CY_GET_XTND_REG8((void CYFAR *)CYREG_PM_AVAIL_
 542              		.loc 1 405 0
 543 0074 1B4B     		ldr	r3, .L30+24
 544 0076 1A78     		ldrb	r2, [r3]	@ zero_extendqisi2
 545 0078 42F01002 		orr	r2, r2, #16
 546 007c 1A70     		strb	r2, [r3]
 547              	.LBE3:
 406:.\Generated_Source\PSoC5/cyfitter_cfg.c **** 	}
 407:.\Generated_Source\PSoC5/cyfitter_cfg.c **** 
 408:.\Generated_Source\PSoC5/cyfitter_cfg.c **** 
 409:.\Generated_Source\PSoC5/cyfitter_cfg.c **** 	/* Perform second pass device configuration. These items must be configured in specific order afte
 410:.\Generated_Source\PSoC5/cyfitter_cfg.c **** 	CYCONFIGCPY((void CYFAR *)(CYREG_PRT0_DM0), (const void CYFAR *)(BS_IOPINS0_0_VAL), 8u);
 548              		.loc 1 410 0
 549 007e 1A48     		ldr	r0, .L30+28
 550 0080 1A49     		ldr	r1, .L30+32
 551 0082 0822     		movs	r2, #8
 552 0084 FFF7FEFF 		bl	CYCONFIGCPY
 553              	.LVL50:
 411:.\Generated_Source\PSoC5/cyfitter_cfg.c **** 	CYCONFIGCPY((void CYFAR *)(CYREG_PRT12_DR), (const void CYFAR *)(BS_IOPINS0_7_VAL), 10u);
 554              		.loc 1 411 0
 555 0088 1948     		ldr	r0, .L30+36
 556 008a 1A49     		ldr	r1, .L30+40
 557 008c 0A22     		movs	r2, #10
 558 008e FFF7FEFF 		bl	CYCONFIGCPY
 559              	.LVL51:
 412:.\Generated_Source\PSoC5/cyfitter_cfg.c **** 	CYCONFIGCPY((void CYFAR *)(CYREG_PRT2_DM0), (const void CYFAR *)(BS_IOPINS0_2_VAL), 8u);
 560              		.loc 1 412 0
 561 0092 1948     		ldr	r0, .L30+44
 562 0094 1949     		ldr	r1, .L30+48
 563 0096 0822     		movs	r2, #8
 564 0098 FFF7FEFF 		bl	CYCONFIGCPY
 565              	.LVL52:
 413:.\Generated_Source\PSoC5/cyfitter_cfg.c **** 	/* Switch Boost to the precision bandgap reference from its internal reference */
 414:.\Generated_Source\PSoC5/cyfitter_cfg.c **** 	CY_SET_REG8((void CYXDATA *)CYREG_BOOST_CR2, (CY_GET_REG8((void CYXDATA *)CYREG_BOOST_CR2) | 0x08u
 566              		.loc 1 414 0
 567 009c 184B     		ldr	r3, .L30+52
 568 009e 1A78     		ldrb	r2, [r3]	@ zero_extendqisi2
 569 00a0 42F00802 		orr	r2, r2, #8
 570 00a4 1A70     		strb	r2, [r3]
 415:.\Generated_Source\PSoC5/cyfitter_cfg.c **** 
 416:.\Generated_Source\PSoC5/cyfitter_cfg.c **** 	/* Set Flash Cycles based on max possible frequency in case a glitch occurs during ClockSetup(). *
ARM GAS  C:\Users\Digi-Key\AppData\Local\Temp\ccZDdc1G.s 			page 19


 417:.\Generated_Source\PSoC5/cyfitter_cfg.c **** 	CY_SET_XTND_REG8((void CYFAR *)(CYREG_CACHE_CC_CTL), (((CYDEV_INSTRUCT_CACHE_ENABLED) != 0) ? 0x61
 571              		.loc 1 417 0
 572 00a6 174D     		ldr	r5, .L30+56
 573 00a8 6123     		movs	r3, #97
 574 00aa 2B70     		strb	r3, [r5]
 418:.\Generated_Source\PSoC5/cyfitter_cfg.c **** 	/* Setup clocks based on selections from Clock DWR */
 419:.\Generated_Source\PSoC5/cyfitter_cfg.c **** 	ClockSetup();
 575              		.loc 1 419 0
 576 00ac FFF7FEFF 		bl	ClockSetup
 577              	.LVL53:
 420:.\Generated_Source\PSoC5/cyfitter_cfg.c **** 	/* Set Flash Cycles based on newly configured 24.00MHz Bus Clock. */
 421:.\Generated_Source\PSoC5/cyfitter_cfg.c **** 	CY_SET_XTND_REG8((void CYFAR *)(CYREG_CACHE_CC_CTL), (((CYDEV_INSTRUCT_CACHE_ENABLED) != 0) ? 0x81
 578              		.loc 1 421 0
 579 00b0 8123     		movs	r3, #129
 580 00b2 2B70     		strb	r3, [r5]
 422:.\Generated_Source\PSoC5/cyfitter_cfg.c **** 	CY_SET_XTND_REG8((void CYFAR *)(CYREG_PANTHER_WAITPIPE), 0x01u);
 581              		.loc 1 422 0
 582 00b4 0122     		movs	r2, #1
 583 00b6 144B     		ldr	r3, .L30+60
 584 00b8 1A70     		strb	r2, [r3]
 423:.\Generated_Source\PSoC5/cyfitter_cfg.c **** 
 424:.\Generated_Source\PSoC5/cyfitter_cfg.c **** 	/* Perform basic analog initialization to defaults */
 425:.\Generated_Source\PSoC5/cyfitter_cfg.c **** 	AnalogSetDefault();
 585              		.loc 1 425 0
 586 00ba FFF7FEFF 		bl	AnalogSetDefault
 587              	.LVL54:
 426:.\Generated_Source\PSoC5/cyfitter_cfg.c **** 
 427:.\Generated_Source\PSoC5/cyfitter_cfg.c **** 	/* Configure alternate active mode */
 428:.\Generated_Source\PSoC5/cyfitter_cfg.c **** 	CYCONFIGCPY((void CYFAR *)CYDEV_PM_STBY_BASE, (const void CYFAR *)CYDEV_PM_ACT_BASE, 14u);
 588              		.loc 1 428 0
 589 00be 1348     		ldr	r0, .L30+64
 590 00c0 2146     		mov	r1, r4
 591 00c2 0E22     		movs	r2, #14
 592 00c4 FFF7FEFF 		bl	CYCONFIGCPY
 593              	.LVL55:
 594 00c8 38BD     		pop	{r3, r4, r5, pc}
 595              	.L31:
 596 00ca 00BF     		.align	2
 597              	.L30:
 598 00cc E8460040 		.word	1073759976
 599 00d0 00000000 		.word	.LANCHOR0
 600 00d4 30000000 		.word	.LANCHOR0+48
 601 00d8 50000048 		.word	1207959632
 602 00dc 03500140 		.word	1073827843
 603 00e0 A0430040 		.word	1073759136
 604 00e4 C2430040 		.word	1073759170
 605 00e8 02510040 		.word	1073762562
 606 00ec F8030048 		.word	1207960568
 607 00f0 C0510040 		.word	1073762752
 608 00f4 00040048 		.word	1207960576
 609 00f8 22510040 		.word	1073762594
 610 00fc 0C040048 		.word	1207960588
 611 0100 22430040 		.word	1073759010
 612 0104 00480040 		.word	1073760256
 613 0108 04000840 		.word	1074266116
 614 010c B0430040 		.word	1073759152
 615              		.cfi_endproc
ARM GAS  C:\Users\Digi-Key\AppData\Local\Temp\ccZDdc1G.s 			page 20


 616              	.LFE8:
 617              		.size	cyfitter_cfg, .-cyfitter_cfg
 618              		.section	.rodata
 619              		.align	2
 620              		.set	.LANCHOR0,. + 0
 621              		.type	cfg_memset_list.4890, %object
 622              		.size	cfg_memset_list.4890, 48
 623              	cfg_memset_list.4890:
 624 0000 10510040 		.word	1073762576
 625 0004 1000     		.short	16
 626 0006 30510040 		.4byte	1073762608
 627 000a 4000     		.short	64
 628 000c F0510040 		.word	1073762800
 629 0010 1000     		.short	16
 630 0012 00000140 		.4byte	1073807360
 631 0016 0010     		.short	4096
 632 0018 00140140 		.word	1073812480
 633 001c 0008     		.short	2048
 634 001e 00400140 		.4byte	1073823744
 635 0022 000A     		.short	2560
 636 0024 004C0140 		.word	1073826816
 637 0028 0002     		.short	512
 638 002a 00500140 		.4byte	1073827840
 639 002e 2000     		.short	32
 640              		.type	cfg_memcpy_list.4891, %object
 641              		.size	cfg_memcpy_list.4891, 10
 642              	cfg_memcpy_list.4891:
 643 0030 60520040 		.word	1073762912
 644 0034 F0030048 		.word	1207960560
 645 0038 0600     		.short	6
 646 003a 0000     		.text
 647              	.Letext0:
 648              		.file 2 "c:\\program files (x86)\\cypress\\psoc creator\\3.2\\psoc creator\\import\\gnu\\arm\\4.8.
 649              		.file 3 ".\\Generated_Source\\PSoC5\\cytypes.h"
 650              		.file 4 ".\\Generated_Source\\PSoC5\\CyLib.h"