ARM GAS  C:\Users\Digi-Key\AppData\Local\Temp\ccISFXVJ.s 			page 1


   1              		.syntax unified
   2              		.cpu cortex-m3
   3              		.fpu softvfp
   4              		.eabi_attribute 20, 1
   5              		.eabi_attribute 21, 1
   6              		.eabi_attribute 23, 3
   7              		.eabi_attribute 24, 1
   8              		.eabi_attribute 25, 1
   9              		.eabi_attribute 26, 1
  10              		.eabi_attribute 30, 1
  11              		.eabi_attribute 34, 1
  12              		.eabi_attribute 18, 4
  13              		.thumb
  14              		.file	"main.c"
  15              		.text
  16              	.Ltext0:
  17              		.cfi_sections	.debug_frame
  18              		.global	__aeabi_f2d
  19              		.global	__aeabi_dcmpge
  20              		.section	.text.main,"ax",%progbits
  21              		.align	2
  22              		.global	main
  23              		.thumb
  24              		.thumb_func
  25              		.type	main, %function
  26              	main:
  27              	.LFB63:
  28              		.file 1 ".\\main.c"
   1:.\main.c      **** /* ========================================
   2:.\main.c      ****  *
   3:.\main.c      ****  * Copyright YOUR COMPANY, THE YEAR
   4:.\main.c      ****  * All Rights Reserved
   5:.\main.c      ****  * UNPUBLISHED, LICENSED SOFTWARE.
   6:.\main.c      ****  *
   7:.\main.c      ****  * CONFIDENTIAL AND PROPRIETARY INFORMATION
   8:.\main.c      ****  * WHICH IS THE PROPERTY OF your company.
   9:.\main.c      ****  *
  10:.\main.c      ****  * ========================================
  11:.\main.c      **** */
  12:.\main.c      **** #include <project.h>
  13:.\main.c      **** #include <stdio.h>
  14:.\main.c      **** #include <math.h> 
  15:.\main.c      **** 
  16:.\main.c      **** 
  17:.\main.c      ****  float voltage = 0; 
  18:.\main.c      ****  uint16 counts = 0; 
  19:.\main.c      **** 
  20:.\main.c      **** int main()
  21:.\main.c      **** {
  29              		.loc 1 21 0
  30              		.cfi_startproc
  31              		@ args = 0, pretend = 0, frame = 56
  32              		@ frame_needed = 0, uses_anonymous_args = 0
  33 0000 F0B5     		push	{r4, r5, r6, r7, lr}
  34              		.cfi_def_cfa_offset 20
  35              		.cfi_offset 4, -20
  36              		.cfi_offset 5, -16
ARM GAS  C:\Users\Digi-Key\AppData\Local\Temp\ccISFXVJ.s 			page 2


  37              		.cfi_offset 6, -12
  38              		.cfi_offset 7, -8
  39              		.cfi_offset 14, -4
  40 0002 8FB0     		sub	sp, sp, #60
  41              		.cfi_def_cfa_offset 80
  22:.\main.c      ****     CyGlobalIntEnable; /* Enable global interrupts. */
  42              		.loc 1 22 0
  43              	@ 22 ".\main.c" 1
  44 0004 62B6     		CPSIE   i
  45              	@ 0 "" 2
  23:.\main.c      ****     ADC_Start(); 
  46              		.loc 1 23 0
  47              		.thumb
  48 0006 FFF7FEFF 		bl	ADC_Start
  49              	.LVL0:
  24:.\main.c      ****     UART_1_Start(); 
  50              		.loc 1 24 0
  51 000a FFF7FEFF 		bl	UART_1_Start
  52              	.LVL1:
  25:.\main.c      ****     int bytes = 0; 
  26:.\main.c      ****     char outputstring[50]; 
  27:.\main.c      ****  
  28:.\main.c      **** 
  29:.\main.c      ****     /* Place your initialization/startup code here (e.g. MyInst_Start()) */
  30:.\main.c      **** 
  31:.\main.c      ****     for(;;)
  32:.\main.c      ****     {
  33:.\main.c      ****         ADC_StartConvert(); 
  34:.\main.c      ****         
  35:.\main.c      ****         counts = ADC_GetResult16(); 
  53              		.loc 1 35 0
  54 000e 1A4E     		ldr	r6, .L8+8
  36:.\main.c      ****         
  37:.\main.c      ****         voltage = ADC_CountsTo_Volts(counts); 
  38:.\main.c      ****         if (voltage >= 1.3) 
  55              		.loc 1 38 0
  56 0010 17A5     		adr	r5, .L8
  57 0012 D5E90045 		ldrd	r4, [r5]
  39:.\main.c      ****         { 
  40:.\main.c      ****           Pin_2_Write(1); 
  41:.\main.c      ****         }
  42:.\main.c      ****         else 
  43:.\main.c      ****         { 
  44:.\main.c      ****           Pin_2_Write(0); 
  45:.\main.c      ****         } 
  46:.\main.c      ****         
  47:.\main.c      ****         sprintf(outputstring, "%6.3f", voltage); 
  58              		.loc 1 47 0
  59 0016 194F     		ldr	r7, .L8+12
  60              	.L5:
  33:.\main.c      ****         ADC_StartConvert(); 
  61              		.loc 1 33 0
  62 0018 FFF7FEFF 		bl	ADC_StartConvert
  63              	.LVL2:
  35:.\main.c      ****         counts = ADC_GetResult16(); 
  64              		.loc 1 35 0
  65 001c FFF7FEFF 		bl	ADC_GetResult16
ARM GAS  C:\Users\Digi-Key\AppData\Local\Temp\ccISFXVJ.s 			page 3


  66              	.LVL3:
  67 0020 3080     		strh	r0, [r6]	@ movhi
  37:.\main.c      ****         voltage = ADC_CountsTo_Volts(counts); 
  68              		.loc 1 37 0
  69 0022 FFF7FEFF 		bl	ADC_CountsTo_Volts
  70              	.LVL4:
  71 0026 7060     		str	r0, [r6, #4]	@ float
  38:.\main.c      ****         if (voltage >= 1.3) 
  72              		.loc 1 38 0
  73 0028 FFF7FEFF 		bl	__aeabi_f2d
  74              	.LVL5:
  75 002c 2246     		mov	r2, r4
  76 002e 2B46     		mov	r3, r5
  77 0030 FFF7FEFF 		bl	__aeabi_dcmpge
  78              	.LVL6:
  79 0034 18B1     		cbz	r0, .L7
  40:.\main.c      ****           Pin_2_Write(1); 
  80              		.loc 1 40 0
  81 0036 0120     		movs	r0, #1
  82 0038 FFF7FEFF 		bl	Pin_2_Write
  83              	.LVL7:
  84 003c 02E0     		b	.L4
  85              	.L7:
  44:.\main.c      ****           Pin_2_Write(0); 
  86              		.loc 1 44 0
  87 003e 0020     		movs	r0, #0
  88 0040 FFF7FEFF 		bl	Pin_2_Write
  89              	.LVL8:
  90              	.L4:
  91              		.loc 1 47 0
  92 0044 7068     		ldr	r0, [r6, #4]	@ float
  93 0046 FFF7FEFF 		bl	__aeabi_f2d
  94              	.LVL9:
  95 004a 0246     		mov	r2, r0
  96 004c 0B46     		mov	r3, r1
  97 004e 01A8     		add	r0, sp, #4
  98 0050 3946     		mov	r1, r7
  99 0052 FFF7FEFF 		bl	sprintf
 100              	.LVL10:
  48:.\main.c      ****         
  49:.\main.c      ****         UART_1_PutString(outputstring);  
 101              		.loc 1 49 0
 102 0056 01A8     		add	r0, sp, #4
 103 0058 FFF7FEFF 		bl	UART_1_PutString
 104              	.LVL11:
  50:.\main.c      ****         UART_1_PutString("\r\n"); 
 105              		.loc 1 50 0
 106 005c 0848     		ldr	r0, .L8+16
 107 005e FFF7FEFF 		bl	UART_1_PutString
 108              	.LVL12:
  51:.\main.c      ****         
  52:.\main.c      ****        
  53:.\main.c      ****         CyDelay(300);        
 109              		.loc 1 53 0
 110 0062 4FF49670 		mov	r0, #300
 111 0066 FFF7FEFF 		bl	CyDelay
 112              	.LVL13:
ARM GAS  C:\Users\Digi-Key\AppData\Local\Temp\ccISFXVJ.s 			page 4


  54:.\main.c      ****         
  55:.\main.c      ****     }
 113              		.loc 1 55 0
 114 006a D5E7     		b	.L5
 115              	.L9:
 116 006c AFF30080 		.align	3
 117              	.L8:
 118 0070 CDCCCCCC 		.word	-858993459
 119 0074 CCCCF43F 		.word	1073007820
 120 0078 00000000 		.word	.LANCHOR0
 121 007c 00000000 		.word	.LC0
 122 0080 08000000 		.word	.LC1
 123              		.cfi_endproc
 124              	.LFE63:
 125              		.size	main, .-main
 126              		.global	counts
 127              		.global	voltage
 128 0084 AFF30080 		.section	.rodata.str1.4,"aMS",%progbits,1
 129              		.align	2
 130              	.LC0:
 131 0000 25362E33 		.ascii	"%6.3f\000"
 131      6600
 132 0006 0000     		.space	2
 133              	.LC1:
 134 0008 0D0A00   		.ascii	"\015\012\000"
 135 000b 00       		.bss
 136              		.align	2
 137              		.set	.LANCHOR0,. + 0
 138              		.type	counts, %object
 139              		.size	counts, 2
 140              	counts:
 141 0000 0000     		.space	2
 142 0002 0000     		.space	2
 143              		.type	voltage, %object
 144              		.size	voltage, 4
 145              	voltage:
 146 0004 00000000 		.space	4
 147              		.text
 148              	.Letext0:
 149              		.file 2 "c:\\program files (x86)\\cypress\\psoc creator\\3.2\\psoc creator\\import\\gnu\\arm\\4.8.
 150              		.file 3 "c:\\program files (x86)\\cypress\\psoc creator\\3.2\\psoc creator\\import\\gnu\\arm\\4.8.
 151              		.file 4 "Generated_Source\\PSoC5/cytypes.h"
 152              		.file 5 "Generated_Source\\PSoC5/core_cm3.h"
 153              		.file 6 "Generated_Source\\PSoC5/ADC.h"
 154              		.file 7 "Generated_Source\\PSoC5/UART_1.h"
 155              		.file 8 "c:\\program files (x86)\\cypress\\psoc creator\\3.2\\psoc creator\\import\\gnu\\arm\\4.8.
 156              		.file 9 "Generated_Source\\PSoC5/Pin_2.h"
 157              		.file 10 "Generated_Source\\PSoC5/CyLib.h"